(dp1
V1220613
p2
(lp3
Vhttp://www.bellinghamherald.com/2014/08/31/3830522/feds-want-nuclear-waste-train.html#storylink%3Drss
p4
aVhttp://www.theday.com/article/20140901/NWS13/309019951/1044
p5
aVhttp://www.knoxnews.com/news/nation-and-world/feds-want-nuclear-waste-train-but-nowhere-to-go_71946860
p6
aVhttp://www.theledger.com/article/20140831/news/140839862
p7
aVhttp://www.abqjournal.com/455121
p8
aVhttp://www.azcentral.com/story/news/nation/2014/08/31/feds-want-nuclear-waste-train-but-nowhere-to-go/14899649/
p9
aVhttp://www.columbian.com/news/2014/aug/31/feds-want-nuclear-waste-train-but-nowhere-to-go/
p10
aVhttp://www.foxbusiness.com/markets/2014/08/31/train-to-nowhere-feds-seeking-train-cars-to-haul-nuclear-waste-but-nowhere-yet/?utm_source=feedburner&utm_medium=feed&utm_campaign=Feed%253A%2Bfoxbusiness%252Flatest%2B%2528Internal%2B-%2BLatest%2BNews%2B-%2BText%2529
p11
aVhttp://hosted2.ap.org/CARIE/6b85546689744819aa7a64cd3ca6cee6/Article_2014-08-31-US-Nuclear-Waste-Train/id-f299775022684996920d88387c9f3f35
p12
aVhttp://www.huffingtonpost.com/2014/08/31/radioactive-trains_n_5744084.html
p13
aVhttp://www.deseretnews.com/article/765658914/Feds-want-nuclear-waste-train-but-nowhere-to-go.html
p14
aVhttp://abcnews.go.com/US/wireStory/feds-nuclear-waste-train-25195896
p15
aVhttp://www.tribtown.com/view/story/9b98eb97617a4ac588f81ed3795228b9/US--Nuclear-Waste-Train
p16
aVhttp://www.timesunion.com/business/energy/article/Feds-want-nuclear-waste-train-but-nowhere-to-go-5725150.php
p17
aVhttp://www.hispanicbusiness.com/2014/8/31/feds_want_nuclear_waste_train_but.htm
p18
aVhttp://www.usatoday.com/story/money/business/2014/08/31/feds-want-nuclear-waste-train-but-nowhere-to-go/14904167/
p19
aVhttp://www.sify.com/news/feds-want-nuclear-waste-train-but-nowhere-to-go-news-others-oi5uJldgehidg.html
p20
aVhttp://www.goerie.com/article/20140901/NEWS06/309019981/Feds-want-nuclear-waste-train-but-nowhere-to-go
p21
aVhttp://www.latinpost.com/articles/20460/20140831/before-finding-disposal-site-fed-seeks-trains-to-haul-nuclear-waste.htm
p22
aVhttp://www.statecolumn.com/2014/08/u-s-government-seeking-opinions-on-future-nuclear-waste-transportation/
p23
aVhttp://news.slashdot.org/story/14/08/31/1554252/feds-want-nuclear-waste-train-but-dont-know-where-it-would-go?utm_source=rss1.0mainlinkanon&utm_medium=feed
p24
aVhttp://www.philly.com/philly/news/nation_world/20140901_Hauling_nuclear_waste.html
p25
aVhttp://www.capitalotc.com/nuclear-waste-train-is-ready-to-haul-radioactive-material-feds/21412/
p26
aVhttp://www.wallstreetotc.com/nuclear-waste-removal-government-seeking-train-cars-for-radioactive-waste/28287/
p27
aVhttp://uncovercalifornia.com/content/21373-department-energy-evaluating-nuclear-waste-train-idea
p28
aVhttp://www.charlotteobserver.com/2014/08/31/5141475/feds-want-nuclear-waste-train.html#storylink%3Drss
p29
aVhttp://www.sacbee.com/2014/08/31/6668529/feds-want-nuclear-waste-train.html#mi_rss%3DWire%2520Nation%2FWorld
p30
aVhttp://www.lakewyliepilot.com/2014/08/31/2569502/feds-want-nuclear-waste-train.html#storylink%3Drss
p31
aVhttp://www.sify.com/news/feds-want-nuclear-waste-train-but-nowhere-to-go-news-others-oi5uJldhaihjj.html
p32
aVhttp://www.upstartmagazine.com/nuclear-waste-is-about-to-move/2910332/
p33
aVhttp://www.thepncvoice.com/federal-government-loss-disposing-current-nuclear-waste-stores/35047
p34
aVhttp://www.thedailybeast.com/cheats/2014/08/31/feds-lack-radioactive-waste-storage-site.html
p35
aVhttp://www.minnpost.com/political-agenda/2014/09/red-wing-officials-disappointed-feds-decision-spent-nuclear-fuel
p36
aVhttp://www.elp.com/articles/2014/09/doe-settles-nuclear-fuel-storage-lawsuit-for-23-5-million.html
p37
asV1323035
p38
(lp39
Vhttp://www.contracostatimes.com/breaking-news/ci_26501733/california-drought-statewide-water-use-drops?source=rss
p40
aVhttp://www.hispanicbusiness.com/2014/9/10/california_drought_water_use_down_in.htm
p41
aVhttp://patch.com/california/lacanadaflintridge/californians-cutting-back-water-usage-report?utm_source=article-mostrecent&utm_medium=rss&utm_term=around%2520town&utm_campaign=recirc&utm_content=normal
p42
aVhttp://www.eleconomista.es/empresas-finanzas/noticias/6068619/09/14/Californians-cut-back-water-use-as-drought-continues.html
p43
aVhttp://www.csmonitor.com/USA/2014/0910/California-drought-Residents-use-less-water-but-is-that-enough-video
p44
aVhttp://la.curbed.com/archives/2014/09/9_of_calis_10_biggest_water_wasters_are_in_southern_california.php
p45
aVhttp://www.almanacnews.com/news/2014/09/04/firefighters-too-seek-to-reduce-water-use-due-to-drought
p46
aVhttp://lompocrecord.com/santamaria/news/local/govt-and-politics/county-set-to-talk-drought-as-fall-weather-moves-in/article_a669fedd-731c-5e24-895f-4726fa9e5318.html
p47
aVhttp://www.almanacnews.com/news/2014/09/10/menlo-park-to-spend-45000-on-drought-outreach
p48
asV1210934
p49
(lp50
Vhttp://www.wral.com/community-service-eyed-for-brooklyn-bridge-stunt/13936734/
p51
aVhttp://www.sfgate.com/news/crime/article/Community-service-suggested-for-Bklyn-Bridge-stunt-5721775.php
p52
aVhttp://www.nbcnewyork.com/news/local/Tourist-Climb-Brooklyn-Bridge-Community-Service-Judge-273226761.html?_osource=SocialFlowTwt_NYBrand
p53
aVhttp://www.ny1.com/content/news/214690/new-security-measures-in-place-at-brooklyn-bridge/
p54
aVhttp://brooklynheightsblog.com/archives/69635?utm_source=feedburner&utm_medium=feed&utm_campaign=Feed%253A%2Bbrooklynheightsblog%252FtuwF%2B%2528Brooklyn%2BHeights%2BBlog%2529&utm_content=FeedBurner
p55
aVhttp://news.yahoo.com/brooklyn-bridge-park-watch-latest-193004829.html
p56
aVhttp://www.cleveland.com/parma/index.ssf/2014/08/parma_parma_heights_and_brookl.html
p57
asV1214835
p58
(lp59
Vhttp://www.charlotteobserver.com/2014/08/29/5137779/community-service-eyed-for-brooklyn.html#storylink%3Drss
p60
aVhttp://bostonherald.com/news_opinion/national/2014/08/community_service_eyed_for_brooklyn_bridge_stunt?utm_source=feedburner&utm_medium=feed&utm_campaign=Feed%253A%2Bbostonherald%252Fnews%252Fnational%252Fgeneral%2B%2528Around%2Bthe%2BNation%2B-%2BNews%2B%2526%2BOpinion%2B-%2BBostonHerald.com%2529&utm_content=FeedBurner
p61
aVhttp://www.news10.com/story/26406407/community-service-eyed-for-brooklyn-bridge-stunt
p62
aVhttp://www.tribtown.com/view/story/2ec23cf394ba40fd8fbb6875fe63dcfb/US--Brooklyn-Bridge-Arrest
p63
aVhttp://gothamist.com/2014/08/30/judge_wants_russian_tourist_who_sca.php
p64
aVhttp://nymag.com/daily/intelligencer/2014/08/dude-who-climbed-bridge-might-have-to-clean-it.html?mid=twitter_dailyintelligencer
p65
asV1246888
p66
(lp67
Vhttp://abcnews.go.com/US/wireStory/work-begins-billion-solar-plant-nevada-25273481
p68
aVhttp://www.sltrib.com/sltrib/money/58379609-79/solar-energy-power-state.html.csp
p69
aVhttp://gulfnews.com/business/general/work-begins-on-1b-solar-plant-in-nevada-1.1381430?utm_content=1.1381430&utm_medium=RSS&utm_source=Feeds&utm_campaign=Work_begins_on_%25241b_solar_plant_in_Nevada&localLinksEnabled=false&utm_term=Business_RSS_feed
p70
aVhttp://www.sfgate.com/business/energy/article/Work-begins-on-1-billion-solar-plant-in-Nevada-5736390.php
p71
aVhttp://www.kentucky.com/2014/09/05/3413484/work-begins-on-1-billion-solar.html#storylink%3Drss
p72
aVhttp://www.dailytelegraph.com.au/news/breaking-news/work-begins-on-solar-plant-in-nevada/story-fni0xqlk-1227049823852?utm_source=feedburner&utm_medium=feed&utm_campaign=Feed%253A%2Bdailytelegraphbreakingnewsndm%2B%2528Daily%2BTelegraph%2B%257C%2BBreaking%2BNews%2529&nk=1339ac6a219f9f6d0141c16a1cbf9a61
p73
aVhttp://www.sbs.com.au/news/article/2014/09/06/work-begins-solar-plant-nevada
p74
aVhttp://lasvegassun.com/news/2014/sep/05/work-begins-1-billion-solar-plant-nevada/
p75
aVhttp://www.pv-tech.org/news/nextera_energy_first_solar_begin_work_on_250mw_nevada_plant?utm_source=pvtech-feeds&utm_medium=rss&utm_campaign=news-rss-feed
p76
aVhttp://www.solarindustrymag.com/e107_plugins/content/content.php?content.14534
p77
aVhttp://online.wsj.com/articles/energy-future-bondholders-seek-answers-about-nextera-offer-1409961329?tesla=y&mod=rss_industry_energy&mg=reno64-wsj&url=http:%2F%2Fonline.wsj.com%2Farticle%2FSB10001424052970204420904580136310751766030.html%3Fmod=rss_industry_energy
p78
aVhttp://patch.com/maryland/potomac/where-does-fillmore-rank-billboards-list-top-25-music-clubs-0
p79
asV1202661
p80
(lp81
Vhttp://www.kentucky.com/2014/08/27/3398987/hawaiian-electric-submits-energy.html#storylink%3Drss
p82
aVhttp://www.charlotteobserver.com/2014/08/27/5133071/hawaiian-electric-submits-energy.html#storylink%3Drss
p83
aVhttp://www.elp.com/articles/2014/08/hawaiian-electric-files-65-percent-renewable-energy-plan.html
p84
aVhttp://www.marketwired.com/press-release/solar3ds-sunworks-division-triples-size-of-headquarters-otcqb-sltd-1941716.htm
p85
aVhttp://www.finanznachrichten.de/nachrichten-2014-08/31242542-solar3d-s-sunworks-division-triples-size-of-headquarters-the-company-secures-a-20-000-square-foot-building-in-roseville-ca-to-accommodate-its-proj-256.htm
p86
aVhttp://www.miamiherald.com/2014/08/26/4309625/new-solar-farm-in-richmond-begins.html
p87
aVhttp://www.therepublic.com/view/story/0249b29ea0024fe4af0f7e09b0df5e9f/IN--Richmond-Solar-Farm
p88
aVhttp://www.kunc.org/post/solar-sparks-old-grid-debate-centralized-or-decentralized
p89
aVhttp://www.heraldsun.com.au/technology/anu-solar-technology-replacing-army-troops-heavy-batteries/story-fnjww8oz-1227039039117?utm_source=feedburner&utm_medium=feed&utm_campaign=Feed%253A%2BHeraldSunNationalNews%2B%2528Herald%2BSun%2B%257C%2BNational%2BNews%2529&nk=5e17dabb4639ae107fd90e661b93fe52
p90
aVhttp://www.bizjournals.com/albany/news/2014/08/27/lockheed-acquires-innovative-battery-company.html?utm_source=feedburner&utm_medium=feed&utm_campaign=Feed%253A%2Bvertical_16%2B%2528Environmental%2BServices%2BIndustry%2BNews%2529
p91
asV1362153
p92
(lp93
Vhttp://www.rawstory.com/rs/2014/09/spacex-falcon-rocket-blasts-off-from-cape-canaveral-early-sunday-morning/
p94
aVhttp://news.yahoo.com/spacex-delays-dragon-cargo-ship-launch-nasa-due-071648808.html
p95
aVhttp://www.space.com/27219-spacex-dragon-launch-bad-weather.html
p96
aVhttp://www.delhidailynews.com/news/SpaceX-CRS-4-launch-to-ISS-cancelled-over-bad-weather-1411221059/
p97
aVhttp://www.space.com/27215-spacex-dragon-cargo-ship-launch.html
p98
aVhttp://www.csmonitor.com/Science/2014/0922/3D-printer-20-mice-now-en-route-to-space-station
p99
aVhttp://www.reuters.com/article/2014/09/21/us-space-spacex-nasa-idUSKBN0HG05B20140921?feedType=RSS&feedName=scienceNews
p100
aVhttp://www.japantimes.co.jp/news/2014/09/21/world/science-health-world/spacex-falcon-rocket-blasts-off-from-florida/#.VB6KPS6SxqY
p101
aVhttp://www.ndtv.com/article/world/20-live-mice-3-d-printer-on-way-to-international-space-station-595566
p102
aVhttp://www.autoworldnews.com/articles/9039/20140920/spacex-dragon-cargo-mission-delayed-to-sunday-watch-here.htm
p103
aVhttp://www.onenewspage.com/video/20140921/2100267/SpaceX-Falcon-Rocket-Blasts-Off-from-Florida.htm
p104
aVhttp://www.jpl.nasa.gov/news/news.php?release=2014-317
p105
aVhttp://www.floridatoday.com/story/tech/science/space/2014/09/21/spacex-dragon-on-way-to-iss/16000349/
p106
aVhttp://www.spaceflightnow.com/falcon9/013/140921launch/
p107
aVhttp://www.ibtimes.com/spacex-launch-delayed-watch-rescheduled-iss-cargo-resupply-mission-sunday-1692384
p108
aVhttp://www.dailymail.co.uk/news/article-2763959/SpaceX-Falcon-rocket-blasts-Florida.html?%253Fito%253D=social-twitter_dailymailus
p109
aVhttp://www.popherald.com/content/2014/09/3267-spacex-falcon-rocket-launch-3d-printer-mice.html
p110
aVhttp://digitaljournal.com/pr/2201790
p111
aVhttp://www.prnewswire.com/news-releases/nasa-cargo-launches-to-space-station-aboard-spacex-resupply-mission-275919781.html
p112
aVhttp://www.iol.co.za/scitech/science/space/spacex-falcon-rocket-blasts-off-1.1754238
p113
aVhttp://www.usatoday.com/story/tech/2014/09/21/spacex-launches-3-d-printer-other-station-gear/16000115/
p114
aVhttp://news.xinhuanet.com/english/sci/2014-09/21/c_133660064.htm
p115
aVhttp://www.cbsnews.com/news/spacex-rocket-launch-to-resupply-international-space-station-delayed/?utm_source=feedburner&amp%3Butm_medium=feed&amp%3Butm_campaign=Feed%253A%2Btech_talk%2B%28CBS%2BNews%2B-%2BTech%2BTalk%29
p116
aVhttp://www.sciencerecorder.com/news/dragon-capsule-from-spacex-in-route-to-international-space-station/
p117
aVhttp://nvonews.com/first-3-d-printer-sent-to-iss-along-with-mice/
p118
aVhttp://news.yahoo.com/spacex-dragon-capsule-reaches-space-station-123747576--finance.html
p119
aVhttp://www.theregister.co.uk/2014/09/21/spacex_dragon_lifts_off_to_nasa_space_station_3d_printer_mice/
p120
aVhttp://news.xinhuanet.com/english/sci/2014-09/21/c_133659857.htm
p121
aVhttp://www.thepncvoice.com/dragon-spacecraft-launch-delayed-weather/36900
p122
aVhttp://www.jrn.com/now-trending/SpaceX-Dragon-mission-brings-3-D-printer-to-space-275931701.html
p123
aVhttp://latino.foxnews.com/latino/lifestyle/2014/09/21/spacex-dragon-capsule-heads-toward-international-space-station/
p124
aVhttp://www.mynews13.com/content/news/cfnews13/news/article.html/content/news/articles/cfn/2014/9/21/spacex_falcon_launch.html?cid=rss
p125
aVhttp://www.patrick.af.mil/news/story.asp?id=123425565
p126
aVhttp://rt.com/news/line/2014-09-21/#71172
p127
aVhttp://www.latinpost.com/articles/21916/20140920/delayed-by-weather-nasas-weather-observing-rapidscat-reset-for-launch.htm
p128
aVhttp://www.businessinsider.com/elon-musk-spacex-space-taxi-dragon-v2-pictures-2014-9?utm_source=feedburner&utm_medium=feed&utm_campaign=Feed%253A%2Btypepad%252Falleyinsider%252Fsilicon_alley_insider%2B%2528Silicon%2BAlley%2BInsider%2529
p129
aVhttp://3dprint.com/16013/3d-printer-nasa-space-launch/
p130
aVhttp://www.irishsun.com/index.php/sid/225923271/scat/a9927dde6777aafc
p131
aVhttp://www.sify.com/news/is-lemon-juice-new-environmental-friendly-solution-for-space-designers-news-international-ojvlJldgedaii.html
p132
aVhttp://www.collectspace.com/news/news-092114a-spacex-crs4-dragon-launch.html
p133
aVhttp://www.usatoday.com/story/news/nation-now/2014/09/09/nasa-tweets-time-capsule/15323293/?utm_source=dlvr.it&utm_medium=twitter
p134
aVhttp://www.sify.com/news/nasa-launches-website-mars-challenge-for-public-news-others-ojvoajcbgjdfb.html
p135
aVhttp://www.medicalnewstoday.com/releases/282728.php
p136
aVhttp://www.newsbiscuit.com/2014/09/20/farage-now-vowing-to-take-earth-out-of-the-solar-system/
p137
asV1325457
p138
(lp139
Vhttp://theenergycollective.com/rosana-francescato/497576/be-prepared-lot-more-solar-2025?utm_source=feedburner&utm_medium=feed&utm_campaign=The%2BEnergy%2BCollective%2B%2528all%2Bposts%2529&utm_content=FeedBurner
p140
aVhttp://www.wdef.com/news/state/story/Georgia-Power-price-plan-rattles-solar-developers/qt2AfNilv0KYt2QiSooS9A.cspx?rss=3471
p141
aVhttp://chronicle.augusta.com/news/business/2014-09-13/georgia-power-price-plan-rattles-solar-companies
p142
aVhttp://theenergycollective.com/nrdcswitchboard/484266/going-back-school-moving-forward-solar?utm_source=feedburner&utm_medium=feed&utm_campaign=The%2BEnergy%2BCollective%2B%2528all%2Bposts%2529&utm_content=FeedBurner
p143
aVhttp://www.virtual-strategy.com/2014/09/12/mike-s-robinson-increase-solar-installations-clean-power-finance-partnership
p144
aVhttp://grist.org/business-technology/this-green-tea-party-star-is-fighting-for-solar/?utm_source=syndication&utm_medium=rss&utm_campaign=feed
p145
aVhttp://theenergycollective.com/solarbusiness/484296/breaking-bad-solar-businesses-restructuring-survival?utm_source=feedburner&utm_medium=feed&utm_campaign=The%2BEnergy%2BCollective%2B%2528all%2Bposts%2529&utm_content=FeedBurner
p146
aVhttp://www.nbc29.com/story/26447273/dominion-installing-solar-project-in-central-va
p147
aVhttp://www.solarnovus.com/former-brownfield-provides-solar-power-to-toledo-zoo_N8132.html?utm_source=feedburner&utm_medium=feed&utm_campaign=Feed%253A%2BSolarNovus%2B%2528Solar%2BNovus%2BToday%2B-%2BDelivering%2Btoday%2527s%2Bsolar%2Btechnology%2Bnews%252C%2Btoday%2529
p148
asV1367793
p149
(lp150
Vhttp://www.pottsmerc.com/business/20140920/fda-tweaks-food-safety-rules-due-next-year
p151
aVhttp://www.laboratoryequipment.com/news/2014/09/fda-tweak-food-safety-rules
p152
aVhttp://www.omaha.com/money/proposed-food-safety-rules-eased-in-rewrite/article_757285cc-a3c4-5489-b119-f440688cc2ef.html
p153
aVhttp://www.idahostatesman.com/2014/09/19/3383293/fda-tweaks-food-safety-rules-due.html?utm_source=feedburner&utm_medium=feed&utm_campaign=Feed%253A%2BIdahostatesmancomBusiness%2B%2528IdahoStatesman.com%2BBusiness%2529
p154
aVhttp://hosted2.ap.org/APDEFAULT/bbd825583c8542898e6fa7d440b9febc/Article_2014-09-19-US--Food%20Safety/id-fac2256d3b9e4c53bc558ddc1d62a2c1
p155
aVhttp://www.shreveporttimes.com/story/money/business/2014/09/20/fda-tweaks-food-safety-rules-due-next-year/15953611/
p156
aVhttp://www.denverpost.com/business/ci_26570245/food-and-drug-administration-will-rewrite-food-safety?source=rss
p157
aVhttp://www.dispatch.com/content/stories/national_world/2014/09/20/fda-will-revise-proposed-food-safety-rules.html
p158
aVhttp://www.dailymailtimes.com/fda-to-rewrite-rules-for-food-safety/197/
p159
asV1338028
p160
(lp161
Vhttp://www.prweb.com/releases/InventHelp-Inventions/Food-Munch-Twine/prweb12125315.htm
p162
aVhttp://www.prweb.com/releases/InventHelp-Inventions/Fashion-Bandana/prweb12125334.htm
p163
aVhttp://www.prweb.com/releases/InventHelp-Inventions/Perfect-Parallel-Squat/prweb12125294.htm
p164
aVhttp://www.prweb.com/releases/InventHelp-Inventions/Maah-Moh-Pineapple-Decor/prweb12125364.htm
p165
aVhttp://www.prweb.com/releases/InventHelp-Inventions/Apparel-Quick-Z/prweb12125434.htm
p166
aVhttp://www.prweb.com/releases/InventHelp-Inventions/Kitchen-Grease-Absorber/prweb12156558.htm
p167
asV1208441
p168
(lp169
Vhttp://www.bizjournals.com/pacific/blog/2014/08/long-term-future-of-hawaiis-energy-industry-isnt.html?utm_source=feedburner&utm_medium=feed&utm_campaign=Feed%253A%2Bvertical_16%2B%2528Environmental%2BServices%2BIndustry%2BNews%2529
p170
aVhttp://www.bizjournals.com/pacific/news/2014/08/26/expert-hawaiian-electric-wont-propose-any-dramatic.html?utm_source=feedburner&utm_medium=feed&utm_campaign=Feed%253A%2Bvertical_16%2B%2528Environmental%2BServices%2BIndustry%2BNews%2529
p171
aVhttp://www.marketwired.com/press-release/hawaii-energy-offers-states-first-ever-energy-efficiency-auction-1942743.htm
p172
aVhttp://www.bizjournals.com/pacific/news/2014/08/29/hawaiis-energy-excelerator-opens-headquarters-in.html?utm_source=feedburner&utm_medium=feed&utm_campaign=Feed%253A%2Bvertical_16%2B%2528Environmental%2BServices%2BIndustry%2BNews%2529
p173
aVhttp://blogs.edf.org/energyexchange/2014/08/25/utility-2-0-nys-new-business-model-should-properly-value-the-costs-and-benefits-of-distributed-energy-resources/?utm_source=feedburner&utm_medium=feed&utm_campaign=Feed%253A%2Benvironmentaldefense%2B%2528EDF.org%2B-%2BMain%2BFeed%2529&utm_content=FeedBurner
p174
aVhttp://business.ptjobsdb.com/database/28-alternative-energy/129-alternative-energy-highest-solar-product-new-video-page.html?utm_source=feedburner&utm_medium=feed&utm_campaign=Feed%253A%2BBusinessPart-timeJobsDatabase%2B%2528Business%2BPart-Time%2BJobs%2BDatabase%252C%2BOpportunities%252C%2BGreener%2BGrass%2BIdeas%2B%257C%2BBusiness.ptJobsDB.com%2529&utm_content=FeedBurner
p175
aVhttp://www.onlinetes.com/Article.aspx?article_id=169898
p176
aVhttp://www.finanznachrichten.de/nachrichten-2014-08/31242510-caverion-corporation-caverion-to-provide-a-total-technical-solution-for-arendal-police-station-in-norway-252.htm
p177
asV1252108
p178
(lp179
Vhttp://www.huffingtonpost.com/2014/09/04/cory-gardner-ad-_n_5767866.html?utm_hp_ref%253Ddenver%2526ir%253DDenver
p180
aVhttp://www.denverpost.com/breakingnews/ci_26468178/cory-gardner-senate-candidate-colo-touts-failed-measure?source=rss
p181
aVhttp://www.charlotteobserver.com/2014/09/04/5149986/senate-candidate-in-colo-touts.html#storylink%3Drss
p182
aVhttp://www.sfgate.com/business/energy/article/Senate-candidate-in-Colo-touts-a-failed-measure-5733958.php
p183
aVhttp://www.startribune.com/nation/273996101.html
p184
aVhttp://www.coloradoan.com/story/news/local/colorado/2014/09/04/gardner-ad-touts-failed-energy-measure/15097743/
p185
aVhttp://www.sify.com/news/senate-candidate-in-colo-touts-a-failed-measure-news-others-ojfbJfdebibba.html
p186
aVhttp://blogs.denverpost.com/thespot/2014/09/05/cory-gardner-renewable-energy-mark-udall/112296/?source=rss
p187
aVhttp://dailycaller.com/2014/09/05/critics-say-cory-gardners-new-ad-is-full-of-hot-air/
p188
aVhttp://www.coloradoindependent.com/149108/ap-fact-checks-gardner-claim-that-he-helped-launch-green-energy-economy
p189
aVhttp://www.hollywoodreporter.com/live-feed/how-amy-poehler-made-a-730633?utm_source=twitter
p190
aVhttp://www.dailymail.co.uk/tvshowbiz/article-2747232/Amy-Poehler-spends-day-wheelchair-bound-superfan-set-Parks-And-Recreation.html?ITO=1490&ns_mchannel=rss&ns_campaign=1490
p191
aVhttp://www.inquisitr.com/1459780/amy-poehler-welcomes-superfan-to-parks-and-recreation-set/#utm_source%3Dfeedburner%26utm_medium%3Dfeed%26utm_campaign%3DFeed%253A%2BTheInquisitr_pop%2B%2528The%2BInquisitr%2B%25C2%25BB%2BEntertainment%2529
p192
asV1355108
p193
(lp194
Vhttp://www.prweb.com/releases/InventHelp-Inventions/Less-Wire-Systems-Elec/prweb12169841.htm
p195
aVhttp://www.prweb.com/releases/InventHelp-Inventions/Parent-Sleevies/prweb12167019.htm
p196
aVhttp://www.prweb.com/releases/InventHelp-Inventions/CIA-Coach-Instruct-Aid/prweb12167156.htm
p197
aVhttp://www.prweb.com/releases/InventHelp-Inventions/Automotive-The-View-Slot/prweb12169348.htm
p198
aVhttp://www.prweb.com/releases/InventHelp-Inventions/Fossil-Cover/prweb12166969.htm
p199
aVhttp://www.prweb.com/releases/InventHelp-Inventions/Automotive-C-Scarp/prweb12166890.htm
p200
aVhttp://www.prweb.com/releases/InventHelp-Inventions/Easy-Garden/prweb12167106.htm
p201
aVhttp://www.prweb.com/releases/InventHelp-Inventions/Hair-Big-Itch/prweb12166753.htm
p202
aVhttp://www.prweb.com/releases/InventHelp-Inventions/Chiropractic-The-Stretch/prweb12164546.htm
p203
aVhttp://www.prweb.com/releases/InventHelp-Inventions/Automobile-Mud-Tire-Pro/prweb12164478.htm
p204
aVhttp://www.prweb.com/releases/InventHelp-Inventions/Food-Breakfast-Rack/prweb12169733.htm
p205
aVhttp://www.jsonline.com/business/pressrelease/national-press-releases/accessory-protects-credit-debit-and-gift-cards-from-scratches-and-wear--designed-by-inventhelp-clients-mlm510-275939691.html
p206
aVhttp://www.prweb.com/releases/InventHelp-Inventions/Gifts-Rare-Air/prweb12169818.htm
p207
aVhttp://www.prweb.com/releases/InventHelp-/Perfect-Plastic/prweb12167085.htm
p208
aVhttp://www.prweb.com/releases/InventHelp-Inventions/Smoking-Hookah-Helper/prweb12169797.htm
p209
aVhttp://www.prweb.com/releases/InventHelp-Inventions/JW-Base-Running-Tool/prweb12166766.htm
p210
aVhttp://www.prweb.com/releases/InventHelp-Inventions/Parent-Kids-Of-Steel/prweb12166991.htm
p211
aVhttp://www.prweb.com/releases/InventHelp-Inventions/The-B-F-Bingo-The-BF/prweb12169672.htm
p212
aVhttp://www.prweb.com/releases/InventHelp-Inventions/Outdoor-Mac-Light/prweb12169761.htm
p213
aVhttp://www.jsonline.com/business/pressrelease/national-press-releases/keeps-chainsaw-chains-neat-and-easily-accessible-with-jacks-pack--designed-by-inventhelp-client-mlm519-275945131.html
p214
aVhttp://www.prweb.com/releases/InventHelp-Inventions/Football-Freshball/prweb12167051.htm
p215
aVhttp://www.prweb.com/releases/InventHelp-Inventions/Parent-Carter-Shaker/prweb12166719.htm
p216
aVhttp://www.prweb.com/releases/InventHelp-Inventions/Pets-Poop-Collector/prweb12164454.htm
p217
aVhttp://www.prweb.com/releases/InventHelp-Inventions/Home-Fence-Inn/prweb12166845.htm
p218
aVhttp://www.prweb.com/releases/InventHelp-Inventions/Home-Corner-Bracket/prweb12166950.htm
p219
aVhttp://www.prweb.com/releases/InventHelp-Inventions/Jacks-Pack/prweb12167130.htm
p220
aVhttp://www.prweb.com/releases/InventHelp-Inventions/Pets-Clean-Paw/prweb12166826.htm
p221
aVhttp://www.prweb.com/releases/InventHelp-Inventions/Nunleys-Boat-Dolly/prweb12169369.htm
p222
aVhttp://www.prweb.com/releases/InventHelp-Inventions/Construction-Paver-Lifter/prweb12169362.htm
p223
aVhttp://www.prweb.com/releases/InventHelp-Inventions/Baby-Teezer/prweb12156653.htm
p224
aVhttp://www.prweb.com/releases/InventHelp-/Self-Expression-Card/prweb12166930.htm
p225
aVhttp://www.prweb.com/releases/InventHelp-Inventions/Huggy-Blade-Buddy/prweb12164500.htm
p226
aVhttp://www.prweb.com/releases/InventHelp-Inventions/Home-ALC-Light/prweb12169555.htm
p227
aVhttp://www.prweb.com/releases/InventHelp-Inventions/Health-Visual-Extender/prweb12169388.htm
p228
aVhttp://www.prweb.com/releases/InventHelp-Inventions/Truck-Drivers-Arm-Friend/prweb12169703.htm
p229
aVhttp://www.prweb.com/releases/InventHelp-Inventions/Efficiency-Max-Pro-Coffee/prweb12169639.htm
p230
aVhttp://www.prweb.com/releases/InventHelp-Inventions/Lawn-EZ-Lift-Bag-Holder/prweb12169624.htm
p231
asV1372513
p232
(lp233
Vhttp://www.kentucky.com/2014/09/24/3444759/wind-energy-proposal-would-light.html#storylink%3Drss
p234
aVhttp://www.palmbeachpost.com/ap/ap/top-news/wind-energy-proposal-would-light-los-angeles-homes/nhS3t/?ecmp=pbp_social_twitter_2014_sfp
p235
aVhttp://www.sfgate.com/business/energy/article/Wind-energy-proposal-would-light-Los-Angeles-homes-5776504.php
p236
aVhttp://www.wfsb.com/story/26611732/wind-energy-proposal-would-light-los-angeles-homes
p237
aVhttp://www.sify.com/news/wind-energy-proposal-would-light-los-angeles-homes-news-others-ojylJihahhidi.html
p238
aVhttp://www.usnews.com/news/technology/articles/2014/09/24/wind-energy-proposal-would-light-los-angeles-homes
p239
aVhttp://wraltechwire.com/duke-energy-has-key-role-in-mammoth-8b-wind-power-project/14011744/
p240
aVhttp://www.startribune.com/nation/276883581.html
p241
aVhttp://www.wtop.com/628/3707799/Wind-project-21st-centurys-Hoover-Dam
p242
aVhttp://abcnews.go.com/Technology/wireStory/wind-energy-proposal-light-los-angeles-homes-25718476
p243
asV1355083
p244
(lp245
Vhttp://www.prnewswire.com/news-releases/nasa-astronaut-to-speak-to-clinton-global-initiative-meeting-attendees-from-international-space-station-276475901.html
p246
aVhttp://www.prnewswire.com/news-releases/nasa-television-coverage-set-for-next-space-station-crew-launch-275612071.html
p247
aVhttp://www.cbsnews.com/news/space-station-cost-projections-questioned/
p248
aVhttp://in.reuters.com/article/2014/09/19/us-aerospace-space-icao-idINKBN0HE2H020140919
p249
aVhttp://phys.org/news/2014-09-halfway-blue-dot-mission.html
p250
aVhttp://keranews.org/post/ex-astronaut-ed-lu-deflecting-asteroids-and-building-private-space-business
p251
asV1355776
p252
(lp253
Vhttp://www.sfgate.com/news/article/NYC-unveils-new-greenhouse-gas-reduction-plan-5770616.php
p254
aVhttp://www.newkerala.com/news/2014/fullnews-105448.html
p255
aVhttp://www.sify.com/news/zero-energy-house-on-display-at-goa-saint-expo-news-others-ojvsulcddeiae.html
p256
aVhttp://newyork.cbslocal.com/2014/09/21/nyc-unveils-new-greenhouse-gas-reduction-plan/
p257
aVhttp://www.portorchardindependent.com/opinion/275618421.html?utm_source=feedburner&utm_medium=feed&utm_campaign=Feed%253A%2Bpoiall%2B%2528All%2BStories%2B-%2BPort%2BOrchard%2BIndependent%2529
p258
aVhttp://www.engadget.com/2014/09/21/hydroelectric-house-human-hamster-wheel-saltwater-car/?ncid=rss_truncated
p259
aVhttp://blog.2modern.com/2014/09/fanimation-sale-highlights-national-ceiling-fan-day.html?utm_source=feedburner&utm_medium=feed&utm_campaign=Feed%253A%2B2modernDesignTalk%2B%25282Modern%2BBlog%2529&utm_content=FeedBurner
p260
asV1378788
p261
(lp262
Vhttp://www.startribune.com/nation/276768281.html
p263
aVhttp://news.yahoo.com/us-california-release-roadmap-solar-projects-192136776--finance.html
p264
aVhttp://abcnews.go.com/US/wireStory/us-california-release-roadmap-solar-projects-25707316
p265
aVhttp://www.sify.com/news/us-california-release-roadmap-for-solar-projects-news-others-ojybayighcjji.html
p266
aVhttp://wtop.com/209/3707874/US-California-release-roadmap-for-solar-projects
p267
aVhttp://hosted2.ap.org/CARIE/6b85546689744819aa7a64cd3ca6cee6/Article_2014-09-23-US--Solar-Desert%20Boom/id-050f63d9519e45e7af17515aa5c2ecb9
p268
aVhttp://www.eleconomista.es/empresas-finanzas/noticias/6101933/09/14/Plan-to-boost-clean-energy-in-the-California-desert-released.html
p269
aVhttp://www.latimes.com/local/lanow/la-me-ln-energy-conservation-plan-20140923-story.html
p270
aVhttp://cleantechnica.com/2014/09/24/new-doi-plan-california-desert-renewables/?utm_source=feedburner&utm_medium=feed&utm_campaign=Feed%253A%2BIM-cleantechnica%2B%2528CleanTechnica%2529
p271
aVhttp://www.latimes.com/science/la-me-desert-plan-20140924-story.html
p272
aVhttp://www.sfgate.com/green/article/Sprawling-solar-farms-OKd-near-desert-national-5775871.php
p273
aVhttp://www.irishsun.com/index.php/sid/226009583/scat/a9927dde6777aafc
p274
aVhttp://www.pv-tech.org/news/us_earmarks_800000_hectares_of_california_desert_for_renewables?utm_source=pvtech-feeds&utm_medium=rss&utm_campaign=everything-rss-feed
p275
aVhttp://www.renewableenergyworld.com/rea/news/article/2014/09/a-landmark-plan-for-renewable-energy-development-in-the-california-desert?cmpid=rss
p276
aVhttp://www.itemlive.com/news/national/us-california-release-roadmap-for-solar-projects/article_f6c992e2-2ce8-572c-89e3-94008cb695eb.html
p277
asV1350176
p278
(lp279
Vhttp://www.startribune.com/politics/275729461.html
p280
aVhttp://dailyjournalonline.com/news/politics/fda-revises-food-safety-rules-due-next-year/article_076985c0-ba7f-56f5-a1be-26b6c7b88217.html
p281
aVhttp://www.wfsb.com/story/26575990/fda-revises-food-safety-rules-due-next-year
p282
aVhttp://news.yahoo.com/fda-tweaks-food-safety-rules-due-next-132207865--finance.html
p283
aVhttp://www.greenfieldreporter.com/view/story/8ee9ef9c60254dc2b05654b86716d13b/US--Food-Safety
p284
aVhttp://www.canadianunderwriter.ca/news/fda-tweaks-food-safety-rules-ahead-of-2015-deadline-in-an-effort-to-appease-wary-farmers/1003262119/?&ref=rss&ctid=1003262119&er=NA
p285
aVhttp://www.usatoday.com/story/money/business/2014/09/19/fda-revises-food-safety-rules-due-next-year/15908683/?sf31351826=1
p286
aVhttp://www.sify.com/news/fda-revises-food-safety-rules-due-next-year-news-others-ojttazfdjdgec.html
p287
aVhttp://www.sify.com/finance/fullstory.php?a=ojttazfdjdgec&title=FDA_tweaks_food_safety_rules_due_next_year
p288
aVhttp://www.thenewstribune.com/2014/09/19/3387919/fda-tweaks-food-safety-rules-due.html#storylink%3Drss
p289
aVhttp://www.seattlepi.com/news/science/article/FDA-tweaks-food-safety-rules-due-next-year-5766737.php
p290
aVhttp://abcnews.go.com/Health/wireStory/fda-tweaks-food-safety-rules-due-year-25619914
p291
asV1370718
p292
(lp293
Vhttp://www.nassaunewslive.com/8-billion-green-energy-initiative-proposed-for-los-angeles/142411
p294
aVhttp://www.webwire.com/ViewPressRel.asp?aId=191033
p295
aVhttp://www.socaltech.com/companies_propose_8_billion_green_energy_initiative_for_la/s-0057044.html
p296
aVhttp://www.jsonline.com/business/duke-atc-power-line-would-link-wyoming-wind-farm-utah-energy-storage-b99357883z1-276856381.html
p297
aVhttp://www.digitaljournal.com/news/environment/wind-power-proposed-to-supply-los-angeles-by-2023/article/404856
p298
aVhttp://trib.com/business/energy/four-companies-announce-billion-wind-farm-outside-wheatland/article_81edc21f-239d-5870-b7c3-2fd14f541b83.html
p299
aVhttp://www.marketwatch.com/story/companies-propose-8-billion-green-energy-plan-for-los-angeles-2014-09-23
p300
aVhttp://www.denverpost.com/business/ci_26593057/wyoming-wind-farm-energy-would-go-l?source=rss
p301
aVhttp://online.wsj.com/articles/companies-propose-8-billion-green-energy-plan-for-los-angeles-1411478019?mod=pls_whats_news_us_business_f
p302
asV1248797
p303
(lp304
Vhttp://www.spaceflightinsider.com/space-flight-news/editorial-commentary-opinion/opinion-nasa-dead-now/
p305
aVhttp://www.prnewswire.com/news-releases/nasa-announces-student-focused-experiment-program-awards-274122331.html
p306
aVhttp://www.usatoday.com/story/tech/2014/08/31/nasa-space-station-crew-capsule/14905385/?utm_source=feedblitz&utm_medium=FeedBlitzRss&utm_campaign=usatoday-techtopstories
p307
aVhttp://www.marketwatch.com/story/nasa-announces-student-focused-experiment-program-awards-2014-09-05
p308
aVhttp://www.dailyrecord.co.uk/news/local-news/houston-we-have-no-problem-4158158
p309
aVhttp://defensetech.org/2014/09/04/updated-f-1-may-replace-rd-180-rocket-engine/
p310
aVhttp://www.kwwl.com/story/26386110/nasas-new-giant-rocket-system-passes-milestone
p311
aVhttp://www.seattlemet.com/articles/planetary-resources-to-mine-asteroids-september-2014?utm_source=feedburner&utm_medium=feed&utm_campaign=Feed%253A%2Bseattlemet-home%2B%2528Home%2B-%2BSeattle%2BMetropolitan%2BMagazine%2529&utm_content=FeedBurner%2Buser%2Bview
p312
aVhttp://www.techtimes.com/articles/14505/20140830/whiskey-in-space.htm
p313
aVhttp://www.wcax.com/story/26403586/sunday-science-new-galaxies-rockets-and-fossil-discoveries
p314
asV1241783
p315
(lp316
Vhttp://zeenews.india.com/news/sci-tech/curbing-water-scarcity-possible-by-2050-study_1462473.html
p317
aVhttp://phys.org/news/2014-08-scarcity.html
p318
aVhttp://www.macombdaily.com/opinion/20140830/kish-water-scofflaws-need-to-set-priorities
p319
aVhttp://www.weeklytimesnow.com.au/business/irrigation-water-bills-set-to-fall-as-carbon-tax-is-swept-away/story-fnkjyj14-1227045031008
p320
aVhttp://www.detroitnews.com/article/20140902/METRO01/309020105/1361/Detroit-bankruptcy-judge-weighing-whether-to-halt-water-shutoffs
p321
aVhttp://www.marketwatch.com/story/suds-water-management-summit-goes-to-cambridge-uk-in-december-2014-08-29
p322
asV1247568
p323
(lp324
Vhttp://www.palmbeachpost.com/ap/ap/florida/southcom-showing-off-new-disaster-relief-gear/nhD7C/?ecmp=pbp_social_twitter_2014_sfp
p325
aVhttp://www.miamiherald.com/2014/09/03/4324679/southcom-showing-off-new-disaster.html
p326
aVhttp://phys.org/news/2014-09-energy-electricity-bill.html
p327
aVhttp://www.yorkshirepost.co.uk/business/business-news/yorkshire-companies-capitalise-on-renewable-energy-benefits-1-6820617
p328
aVhttp://www.ibtimes.com/chevron-finalizes-sale-its-clean-energy-subsidiary-marking-latest-exit-oil-major-1677212
p329
aVhttps://www.gov.uk/government/publications/offshore-renewable-energy-installations-orei
p330
asV1340191
p331
(lp332
Vhttp://www.marketwatch.com/story/nasa-scientist-to-discuss-the-case-of-the-missing-martian-atmosphere-at-library-of-congress-lecture-2014-09-12
p333
aVhttp://www.prnewswire.com/news-releases/nasa-scientist-to-discuss-the-case-of-the-missing-martian-atmosphere-at-library-of-congress-lecture-274926191.html
p334
aVhttp://www.broadwayworld.com/bwwtv/article/NASA-to-hold-Sept-17-Briefing-on-MAVEN-Mars-Orbit-Insertion-Events-Coverage-20140916
p335
aVhttp://www.prnewswire.com/news-releases/nasa-to-hold-sept-17-briefing-on-maven-mars-orbit-insertion-events-coverage-274914031.html
p336
aVhttp://www.sify.com/news/india-will-become-first-asian-nation-to-reach-mars-claims-isro-news-national-ojpoafghibgaf.html
p337
aVhttp://www.thehindu.com/sci-tech/loading-of-commands-for-mars-orbiter-begins/article6410296.ece
p338
aVhttp://www.business-standard.com/article/current-affairs/isro-says-india-s-mars-orbiter-mission-is-on-target-114091200825_1.html
p339
aVhttp://www.inquisitr.com/1476344/bruno-mars-third-album/#utm_source%3Dfeedburner%26utm_medium%3Dfeed%26utm_campaign%3DFeed%253A%2BTheInquisitr_pop%2B%2528The%2BInquisitr%2B%25C2%25BB%2BEntertainment%2529
p340
asV1222887
p341
(lp342
Vhttp://www.prnewswire.com/news-releases/doe-awards-strengthen-qm-power-focus-to-become-preeminent-energy-solutions-provider-for-hvacr-273419931.html
p343
aVhttp://www.finanznachrichten.de/nachrichten-2014-09/31281002-doe-awards-strengthen-qm-power-focus-to-become-preeminent-energy-solutions-provider-for-hvacr-008.htm
p344
aVhttp://desototimes.com/articles/2014/08/31/news/doc53eeae408cff4478142226.txt
p345
aVhttp://khaleejtimes.com/kt-article-display-1.asp?xfile=data%2Fnationhealth%2F2014%2FSeptember%2Fnationhealth_September3.xml&section=nationhealth
p346
aVhttp://www.esmagazine.com/articles/96738-a-starring-role-for-universal-city-retrofit
p347
asV1361479
p348
(lp349
Vhttp://www.prweb.com/releases/InventHelp-Inventions/Basketball-Balla-Rific/prweb12158954.htm
p350
aVhttp://www.prweb.com/releases/InventHelp-Inventions/Multi-Bake-Baking/prweb12188234.htm
p351
aVhttp://www.prweb.com/releases/InventHelp-Inventions/Braille-Microwave-Blind/prweb12157388.htm
p352
aVhttp://www.prweb.com/releases/InventHelp-Inventions/Medical-Wound-Cleaner/prweb12169929.htm
p353
aVhttp://www.prweb.com/releases/InventHelp-Inventions/Archery-Boresighter-Hunt/prweb12159033.htm
p354
aVhttp://www.prweb.com/releases/InventHelp-Inventions/SSP-and-C-Safety-SSP_C/prweb12158915.htm
p355
aVhttp://www.prweb.com/releases/InventHelp-Inventions/Mobile-Texting-Game/prweb12159349.htm
p356
aVhttp://www.prweb.com/releases/InventHelp-Inventions/Home-Gator-Retrieval-Sys/prweb12169940.htm
p357
aVhttp://www.prweb.com/releases/InventHelp-/Flower-Holder-and-More/prweb12159196.htm
p358
aVhttp://www.prweb.com/releases/InventHelp-Inventions/Butt-Spray-Hygiene/prweb12159235.htm
p359
aVhttp://www.prweb.com/releases/InventHelp-Inventions/My-Sleep-Personal-Alarm/prweb12159399.htm
p360
aVhttp://www.prweb.com/releases/InventHelp-Inventions/Gun-Mag-Duster/prweb12158941.htm
p361
aVhttp://www.prweb.com/releases/InventHelp-Inventions/Sta-Pressed-Hanger/prweb12158968.htm
p362
aVhttp://www.prweb.com/releases/InventHelp/Medical/prweb12183595.htm
p363
asV1263671
p364
(lp365
Vhttp://www.scmp.com/news/china/article/1590091/china-shows-advanced-ship-missile-defence-system
p366
aVhttp://www.channelnewsasia.com/news/asiapacific/china-shows-off-new/1356780.html
p367
aVhttp://www.china.org.cn/china/2014-09/10/content_33473535.htm
p368
aVhttp://www.bizjournals.com/boston/blog/techflash/2014/09/raytheon-receives-109m-contract-for-patriot.html?utm_source=feedburner&utm_medium=feed&utm_campaign=Feed%253A%2Bvertical_47%2B%2528Telecom%2BIndustry%2BNews%2529
p369
aVhttp://www.army.mil/article/132400/Leader_of_Northern_Command_praises_Missile_Defense_Agency/?from=RSS
p370
aVhttp://washingtonexaminer.com/dod-unit-ignored-audit-overpaid-millions/article/2553428
p371
aVhttp://www.onlineamd.com/Article.aspx?article_id=170116
p372
aVhttp://arxiv.org/abs/1409.4159
p373
asV1343983
p374
(lp375
Vhttp://www.prnewswire.com/news-releases/sdges-residential-rate-reform-proposal-seeks-fairness-for-all-275348251.html
p376
aVhttp://www.10news.com/news/hearings-start-on-sdge-proposed-rate-change-091614
p377
aVhttp://patch.com/california/carlsbad/high-temps-plus-sdge-customers-who-cut-back-0?utm_source=article-mostrecent&utm_medium=rss&utm_term=around%2520town&utm_campaign=recirc&utm_content=normal
p378
aVhttp://www.renew-grid.com/e107_plugins/content/content.php?content.11270
p379
aVhttp://www.renew-grid.com/e107_plugins/content/content.php?content.11266
p380
aVhttp://www.csindy.com/IndyBlog/archives/2014/09/16/new-energy-officer-hired-at-springs-utilities
p381
asV1392922
p382
(lp383
Vhttp://www.prnewswire.com/news-releases/representative-petri-takes-stand-for-consumers--food-safety-276570631.html
p384
aVhttp://www.prnewswire.com/news-releases/representative-collins-takes-stand-for-consumers--food-safety-276574881.html
p385
aVhttp://www.prnewswire.com/news-releases/representative-thompson-takes-stand-for-consumers--food-safety-276704711.html
p386
aVhttp://www.marketwatch.com/story/representative-petri-takes-stand-for-consumers-food-safety-2014-09-23
p387
aVhttp://www.marketwatch.com/story/representative-collins-takes-stand-for-consumers-food-safety-2014-09-23
p388
aVhttp://www.dailynews.com/general-news/20140928/groups-launch-campaigns-on-gmo-labeling-in-oregon
p389
aVhttp://www.oregonlive.com/portland/index.ssf/2014/09/campaign_over_labeling_genetic.html
p390
aVhttp://www.irishexaminer.com/business/china-cites-low-public-support-for-suspension-of-gm-soybean-import-288959.html
p391
aVhttp://www.taipeitimes.com/News/editorials/archives/2014/09/24/2003600431
p392
aVhttp://e360.yale.edu/digest/food_security_issues_often_neglected_after_extreme_weather_events/4253/?utm_source=feedburner&utm_medium=feed&utm_campaign=Feed%253A%2BYaleEnvironment360%2B%2528Yale%2BEnvironment%2B360%2529&utm_content=FeedBurner
p393
asV1227135
p394
(lp395
Vhttp://www.prnewswire.com/news-releases/sunshare-announces-program-to-provide-free-electricity-from-its-community-solar-garden-to-families-of-students-at-academy-360-273105791.html
p396
aVhttp://www.marketwatch.com/story/sunshare-announces-program-to-provide-free-electricity-from-its-community-solar-garden-to-families-of-students-at-academy-360-2014-08-28
p397
aVhttp://www.marketwatch.com/story/bear-republic-brewing-co-taps-enphase-energy-and-north-state-solar-energy-for-solar-installation-2014-08-28
p398
aVhttp://www.denverpost.com/news/ci_26426956/here-comes-sun-montbello-school-recipient-solarenergy?source=rss&utm_source=feedburner&utm_medium=feed&utm_campaign=Feed%253A%2Bdp-news-local-schools-k-12%2B%2528Denver%2BPost%253A%2BNews%253A%2BEducation%253A%2BSchools%253A%2BK-12%2BSchools%2529
p399
aVhttp://www.prnewswire.com/news-releases/solar-energy-market-in-india-2014---2022-273458401.html
p400
aVhttp://www.solarpowerworldonline.com/2014/08/xcel-cec-open-two-new-community-solar-facilities-denver/?utm_source=rss&utm_medium=rss&utm_campaign=xcel-cec-open-two-new-community-solar-facilities-denver
p401
aVhttp://reports.pr-inside.com/report-published-solar-systems-pty-r4109732.htm
p402
aVhttp://www.onlinetes.com/Article.aspx?article_id=169893
p403
asV1367788
p404
(lp405
Vhttp://hosted2.ap.org/APDEFAULT/f70471f764144b2fab526d39972d37b3/Article_2014-09-23-US--Wind%20Farm-Los%20Angeles%20Power/id-49c1b83e2f1a44fab41057e4c1a979ec
p406
aVhttp://hosted2.ap.org/APDEFAULT/f70471f764144b2fab526d39972d37b3/Article_2014-09-23-US--Wind%20Farm-Los%20Angeles%20Power/id-1d41fc47900641888ad4ef4e3c4db020
p407
aVhttp://www.ajc.com/ap/ap/business/wind-power-proposed-to-supply-los-angeles-area/nhSfj/
p408
aVhttp://www.sltrib.com/sltrib/world/58447682-68/energy-wind-power-project.html.csp
p409
aVhttp://www.wfsb.com/story/26606551/wind-energy-proposal-would-light-los-angeles-homes
p410
aVhttp://www.sfgate.com/business/energy/article/Wind-power-proposed-to-supply-Los-Angeles-area-5775115.php
p411
aVhttp://www.sacbee.com/2014/09/23/6729883/wind-power-proposed-to-supply.html#mi_rss%3DAP%2520State%2520News
p412
aVhttp://www.bradenton.com/2014/09/23/5375177/wind-power-proposed-to-supply.html#storylink%3Drss
p413
aVhttp://www.wfsb.com/story/26606551/proposal-would-send-wyoming-wind-energy-to-la
p414
aVhttp://www.theglobeandmail.com/report-on-business/international-business/us-business/proposal-aims-to-send-wyoming-wind-energy-to-la-area-within-a-decade/article20748938/?cmpid=rss1
p415
aVhttp://hosted2.ap.org/APDEFAULT/f70471f764144b2fab526d39972d37b3/Article_2014-09-23-US--Wind%20Farm-Los%20Angeles%20Power/id-e1503f3f3ec44f45a76b870dc9e00444
p416
aVhttp://www.sify.com/news/proposal-would-send-wyoming-wind-energy-to-la-news-others-ojxx4regaafjh.html
p417
as.