(dp1
Vhttp://www.prweb.com/releases/InventHelp-Inventions/Fashion-Bandana/prweb12125334.htm
p2
(lp3
sVhttp://www.japantimes.co.jp/news/2014/09/21/world/science-health-world/spacex-falcon-rocket-blasts-off-from-florida/#.VB6KPS6SxqY
p4
(lp5
sVhttp://www.wallstreetotc.com/nuclear-waste-removal-government-seeking-train-cars-for-radioactive-waste/28287/
p6
(lp7
sVhttp://www.thenewstribune.com/2014/09/19/3387919/fda-tweaks-food-safety-rules-due.html#storylink%3Drss
p8
(lp9
Vhttp://www.lakewyliepilot.com/2014/09/19/2597218/fda-tweaks-food-safety-rules-due.html#storylink%3Drss
p10
aVhttp://www.sanluisobispo.com/2014/09/19/3253414/fda-tweaks-food-safety-rules-due.html#storylink%3Drss
p11
aVhttp://www.kentucky.com/2014/09/19/3437185/fda-tweaks-food-safety-rules-due.html#storylink%3Drss
p12
asVhttps://www.gov.uk/government/publications/offshore-renewable-energy-installations-orei
p13
(lp14
sVhttp://desototimes.com/articles/2014/08/31/news/doc53eeae408cff4478142226.txt
p15
(lp16
Vhttp://www.desototimes.com/articles/2014/08/31/news/doc53eeae408cff4478142226.txt
p17
aVhttp://m.desototimes.com/articles/2014/08/31/news/doc53eeae408cff4478142226.txt
p18
asVhttp://www.latimes.com/local/lanow/la-me-ln-energy-conservation-plan-20140923-story.html
p19
(lp20
Vhttp://www.latimes.com/local/lanow/la-me-ln-energy-conservation-plan-20140923-story.html?track=rss&utm_source=feedburner&utm_medium=feed&utm_campaign=Feed%253A%2Blanowblog%2B%2528L.A.%2BNow%2529
p21
asVhttp://www.prweb.com/releases/InventHelp-/Self-Expression-Card/prweb12166930.htm
p22
(lp23
sVhttp://online.wsj.com/articles/energy-future-bondholders-seek-answers-about-nextera-offer-1409961329?tesla=y&mod=rss_industry_energy&mg=reno64-wsj&url=http:%2F%2Fonline.wsj.com%2Farticle%2FSB10001424052970204420904580136310751766030.html%3Fmod=rss_industry_energy
p24
(lp25
Vhttp://online.wsj.com/articles/energy-future-bondholders-seek-answers-about-nextera-offer-1409961329?mod=pls_whats_news_us_business_f
p26
asVhttp://www.huffingtonpost.com/2014/09/04/cory-gardner-ad-_n_5767866.html?utm_hp_ref%253Ddenver%2526ir%253DDenver
p27
(lp28
Vhttp://www.huffingtonpost.com/2014/09/04/cory-gardner-ad-_n_5767866.html
p29
aVhttp://www.huffingtonpost.com/2014/09/04/cory-gardner-ad-_n_5767866.html?utm_hp_ref=denver&amp%3Bir=Denver
p30
asVhttp://www.wcax.com/story/26403586/sunday-science-new-galaxies-rockets-and-fossil-discoveries
p31
(lp32
sVhttp://patch.com/california/lacanadaflintridge/californians-cutting-back-water-usage-report?utm_source=article-mostrecent&utm_medium=rss&utm_term=around%2520town&utm_campaign=recirc&utm_content=normal
p33
(lp34
sVhttp://www.prweb.com/releases/InventHelp-Inventions/Huggy-Blade-Buddy/prweb12164500.htm
p35
(lp36
sVhttp://www.collectspace.com/news/news-092114a-spacex-crs4-dragon-launch.html
p37
(lp38
sVhttp://online.wsj.com/articles/companies-propose-8-billion-green-energy-plan-for-los-angeles-1411478019?mod=pls_whats_news_us_business_f
p39
(lp40
sVhttp://www.china.org.cn/china/2014-09/10/content_33473535.htm
p41
(lp42
sVhttp://www.army.mil/article/132400/Leader_of_Northern_Command_praises_Missile_Defense_Agency/?from=RSS
p43
(lp44
sVhttp://www.sbs.com.au/news/article/2014/09/06/work-begins-solar-plant-nevada
p45
(lp46
sVhttp://www.bellinghamherald.com/2014/08/31/3830522/feds-want-nuclear-waste-train.html#storylink%3Drss
p47
(lp48
Vhttp://www.philstar.com/world/2014/09/01/1364180/feds-want-nuclear-waste-train-nowhere-go?utm_source=twitterfeed&utm_medium=twitter
p49
aVhttp://www.newstribune.com/news/2014/sep/01/feds-want-nuclear-waste-train-no-where-go/
p50
asVhttp://www.timesunion.com/business/energy/article/Feds-want-nuclear-waste-train-but-nowhere-to-go-5725150.php
p51
(lp52
Vhttp://www.abc15.com/news/national/feds-want-nuclear-waste-train-but-nowhere-to-go
p53
aVhttp://www.seattlepi.com/business/energy/article/Feds-want-nuclear-waste-train-but-nowhere-to-go-5725150.php
p54
aVhttp://bigstory.ap.org/article/feds-want-nuclear-waste-train-nowhere-go
p55
aVhttp://www.komonews.com/news/national/Feds-want-nuclear-waste-train-but-nowhere-to-go-273381621.html
p56
aVhttp://www.kval.com/news/national/Feds-want-nuclear-waste-train-but-nowhere-to-go-273381621.html
p57
aVhttp://www.sltrib.com/sltrib/world/58358549-68/nuclear-fuel-rail-energy.html.csp
p58
aVhttp://www.katu.com/news/national/Feds-want-nuclear-waste-train-but-nowhere-to-go-273381621.html
p59
asVhttp://www.prnewswire.com/news-releases/representative-thompson-takes-stand-for-consumers--food-safety-276704711.html
p60
(lp61
sVhttp://www.oregonlive.com/portland/index.ssf/2014/09/campaign_over_labeling_genetic.html
p62
(lp63
sVhttp://www.onenewspage.com/video/20140921/2100267/SpaceX-Falcon-Rocket-Blasts-Off-from-Florida.htm
p64
(lp65
sVhttp://www.prweb.com/releases/InventHelp-Inventions/Automobile-Mud-Tire-Pro/prweb12164478.htm
p66
(lp67
sVhttp://www.prweb.com/releases/InventHelp/Medical/prweb12183595.htm
p68
(lp69
sVhttp://www.sfgate.com/business/energy/article/Senate-candidate-in-Colo-touts-a-failed-measure-5733958.php
p70
(lp71
sVhttp://www.prweb.com/releases/InventHelp-Inventions/Butt-Spray-Hygiene/prweb12159235.htm
p72
(lp73
sVhttp://www.prweb.com/releases/InventHelp-Inventions/Smoking-Hookah-Helper/prweb12169797.htm
p74
(lp75
sVhttp://www.marketwired.com/press-release/solar3ds-sunworks-division-triples-size-of-headquarters-otcqb-sltd-1941716.htm
p76
(lp77
sVhttp://www.sify.com/news/senate-candidate-in-colo-touts-a-failed-measure-news-others-ojfbJfdebibba.html
p78
(lp79
sVhttp://www.socaltech.com/companies_propose_8_billion_green_energy_initiative_for_la/s-0057044.html
p80
(lp81
sVhttp://www.latimes.com/science/la-me-desert-plan-20140924-story.html
p82
(lp83
Vhttp://www.latimes.com/science/la-me-desert-plan-20140924-story.html?track=rss&utm_source=feedburner&utm_medium=feed&utm_campaign=Feed%253A%2Blatimes%252Fnews%252Fscience%2B%2528L.A.%2BTimes%2B-%2BScience%2529
p84
asVhttp://www.startribune.com/nation/276768281.html
p85
(lp86
sVhttp://gothamist.com/2014/08/30/judge_wants_russian_tourist_who_sca.php
p87
(lp88
sVhttp://www.bizjournals.com/pacific/blog/2014/08/long-term-future-of-hawaiis-energy-industry-isnt.html?utm_source=feedburner&utm_medium=feed&utm_campaign=Feed%253A%2Bvertical_16%2B%2528Environmental%2BServices%2BIndustry%2BNews%2529
p89
(lp90
sVhttp://www.theday.com/article/20140901/NWS13/309019951/1044
p91
(lp92
sVhttp://www.reuters.com/article/2014/09/21/us-space-spacex-nasa-idUSKBN0HG05B20140921?feedType=RSS&feedName=scienceNews
p93
(lp94
Vhttp://economictimes.indiatimes.com/tech/science/spacex-falcon-rocket-blasts-off-from-florida/articleshow/43066882.cms
p95
aVhttp://news.yahoo.com/spacex-falcon-rocket-blasts-off-florida-071058727--finance.html
p96
aVhttp://in.reuters.com/article/2014/09/21/space-spacex-nasa-idINL1N0RM0AP20140921
p97
aVhttp://in.reuters.com/article/2014/09/21/space-spacex-nasa-idINKBN0HG06Z20140921
p98
asVhttp://www.prweb.com/releases/InventHelp-Inventions/Food-Breakfast-Rack/prweb12169733.htm
p99
(lp100
sVhttp://www.sify.com/news/zero-energy-house-on-display-at-goa-saint-expo-news-others-ojvsulcddeiae.html
p101
(lp102
sVhttp://phys.org/news/2014-09-energy-electricity-bill.html
p103
(lp104
sVhttp://www.prweb.com/releases/InventHelp-Inventions/JW-Base-Running-Tool/prweb12166766.htm
p105
(lp106
sVhttp://www.ndtv.com/article/world/20-live-mice-3-d-printer-on-way-to-international-space-station-595566
p107
(lp108
sVhttp://www.therepublic.com/view/story/0249b29ea0024fe4af0f7e09b0df5e9f/IN--Richmond-Solar-Farm
p109
(lp110
sVhttp://www.denverpost.com/business/ci_26570245/food-and-drug-administration-will-rewrite-food-safety?source=rss
p111
(lp112
Vhttp://www.denverpost.com/business/ci_26570245/food-and-drug-administration-will-rewrite-food-safety
p113
asVhttp://www.usatoday.com/story/money/business/2014/09/19/fda-revises-food-safety-rules-due-next-year/15908683/?sf31351826=1
p114
(lp115
sVhttp://www.prnewswire.com/news-releases/nasa-announces-student-focused-experiment-program-awards-274122331.html
p116
(lp117
sVhttp://www.marketwired.com/press-release/hawaii-energy-offers-states-first-ever-energy-efficiency-auction-1942743.htm
p118
(lp119
sVhttp://www.deseretnews.com/article/765658914/Feds-want-nuclear-waste-train-but-nowhere-to-go.html
p120
(lp121
sVhttp://www.prweb.com/releases/InventHelp-Inventions/Parent-Sleevies/prweb12167019.htm
p122
(lp123
sVhttp://www.prweb.com/releases/InventHelp-Inventions/Lawn-EZ-Lift-Bag-Holder/prweb12169624.htm
p124
(lp125
sVhttp://abcnews.go.com/US/wireStory/feds-nuclear-waste-train-25195896
p126
(lp127
sVhttp://www.thepncvoice.com/dragon-spacecraft-launch-delayed-weather/36900
p128
(lp129
sVhttp://www.iol.co.za/scitech/science/space/spacex-falcon-rocket-blasts-off-1.1754238
p130
(lp131
sVhttp://www.business-standard.com/article/current-affairs/isro-says-india-s-mars-orbiter-mission-is-on-target-114091200825_1.html
p132
(lp133
sVhttp://www.bizjournals.com/pacific/news/2014/08/26/expert-hawaiian-electric-wont-propose-any-dramatic.html?utm_source=feedburner&utm_medium=feed&utm_campaign=Feed%253A%2Bvertical_16%2B%2528Environmental%2BServices%2BIndustry%2BNews%2529
p134
(lp135
Vhttp://www.bizjournals.com/pacific/news/2014/08/26/expert-hawaiian-electric-wont-propose-any-dramatic.html?utm_source=feedburner&utm_medium=feed&utm_campaign=Feed%253A%2Bbizj_pacific%2B%2528Pacific%2BBusiness%2BNews%2Bof%2BHonolulu%2529
p136
asVhttp://www.newkerala.com/news/2014/fullnews-105448.html
p137
(lp138
sVhttp://www.prweb.com/releases/InventHelp-Inventions/Efficiency-Max-Pro-Coffee/prweb12169639.htm
p139
(lp140
sVhttp://www.lakewyliepilot.com/2014/08/31/2569502/feds-want-nuclear-waste-train.html#storylink%3Drss
p141
(lp142
sVhttp://e360.yale.edu/digest/food_security_issues_often_neglected_after_extreme_weather_events/4253/?utm_source=feedburner&utm_medium=feed&utm_campaign=Feed%253A%2BYaleEnvironment360%2B%2528Yale%2BEnvironment%2B360%2529&utm_content=FeedBurner
p143
(lp144
sVhttp://dailyjournalonline.com/news/politics/fda-revises-food-safety-rules-due-next-year/article_076985c0-ba7f-56f5-a1be-26b6c7b88217.html
p145
(lp146
Vhttp://santamariatimes.com/news/national/govt-and-politics/fda-revises-food-safety-rules-due-next-year/article_7d96fff7-409c-5792-8119-11bac3476832.html
p147
aVhttp://lacrossetribune.com/business/fda-revises-food-safety-rules-due-next-year/article_327cceb3-9bb9-5f82-a9f6-0ca1eac0ef19.html
p148
aVhttp://siouxcityjournal.com/news/national/govt-and-politics/fda-revises-food-safety-rules-due-next-year/article_81023b51-4a56-5bf1-bd90-5e4d13385409.html
p149
aVhttp://billingsgazette.com/news/national/government-and-politics/fda-revises-food-safety-rules-due-next-year/article_1dc8aefb-6058-5d64-b032-e9d01ac642cf.html
p150
aVhttp://trib.com/business/fda-revises-food-safety-rules-due-next-year/article_5f618cbd-8e7a-5d8a-a235-b3c948d75db4.html
p151
aVhttp://www.winonadailynews.com/business/fda-revises-food-safety-rules-due-next-year/article_62283d98-114a-5562-9d9a-251202fc86a1.html
p152
aVhttp://www.stltoday.com/news/national/govt-and-politics/fda-revises-food-safety-rules-due-next-year/article_d0635c74-ddf5-510c-98d5-7c2b1b8564fa.html
p153
asVhttp://www.prweb.com/releases/InventHelp-Inventions/Maah-Moh-Pineapple-Decor/prweb12125364.htm
p154
(lp155
sVhttp://www.inquisitr.com/1476344/bruno-mars-third-album/#utm_source%3Dfeedburner%26utm_medium%3Dfeed%26utm_campaign%3DFeed%253A%2BTheInquisitr_pop%2B%2528The%2BInquisitr%2B%25C2%25BB%2BEntertainment%2529
p156
(lp157
sVhttp://www.prweb.com/releases/InventHelp-Inventions/Construction-Paver-Lifter/prweb12169362.htm
p158
(lp159
sVhttp://theenergycollective.com/nrdcswitchboard/484266/going-back-school-moving-forward-solar?utm_source=feedburner&utm_medium=feed&utm_campaign=The%2BEnergy%2BCollective%2B%2528all%2Bposts%2529&utm_content=FeedBurner
p160
(lp161
sVhttp://www.ibtimes.com/chevron-finalizes-sale-its-clean-energy-subsidiary-marking-latest-exit-oil-major-1677212
p162
(lp163
sVhttp://www.dispatch.com/content/stories/national_world/2014/09/20/fda-will-revise-proposed-food-safety-rules.html
p164
(lp165
sVhttp://www.cbsnews.com/news/space-station-cost-projections-questioned/
p166
(lp167
sVhttp://blogs.denverpost.com/thespot/2014/09/05/cory-gardner-renewable-energy-mark-udall/112296/?source=rss
p168
(lp169
sVhttp://www.digitaljournal.com/news/environment/wind-power-proposed-to-supply-los-angeles-by-2023/article/404856
p170
(lp171
sVhttp://www.kentucky.com/2014/09/05/3413484/work-begins-on-1-billion-solar.html#storylink%3Drss
p172
(lp173
sVhttp://www.canadianunderwriter.ca/news/fda-tweaks-food-safety-rules-ahead-of-2015-deadline-in-an-effort-to-appease-wary-farmers/1003262119/?&ref=rss&ctid=1003262119&er=NA
p174
(lp175
sVhttp://www.space.com/27215-spacex-dragon-cargo-ship-launch.html
p176
(lp177
Vhttp://news.yahoo.com/spacex-launches-dragon-cargo-ship-nasa-fantastic-night-084753224.html
p178
aVhttp://www.space.com/27215-spacex-dragon-cargo-ship-launch.html?utm_source=feedburner&amp%3Butm_medium=feed&amp%3Butm_campaign=Feed%253A%2Bspaceheadlines%2B%28SPACE.com%2BHeadline%2BFeed%29
p179
asVhttp://news.yahoo.com/spacex-dragon-capsule-reaches-space-station-123747576--finance.html
p180
(lp181
sVhttp://www.prnewswire.com/news-releases/nasa-television-coverage-set-for-next-space-station-crew-launch-275612071.html
p182
(lp183
sVhttp://digitaljournal.com/pr/2201790
p184
(lp185
sVhttp://www.capitalotc.com/nuclear-waste-train-is-ready-to-haul-radioactive-material-feds/21412/
p186
(lp187
sVhttp://www.theledger.com/article/20140831/news/140839862
p188
(lp189
sVhttp://www.prweb.com/releases/InventHelp-Inventions/Home-Corner-Bracket/prweb12166950.htm
p190
(lp191
sVhttp://www.omaha.com/money/proposed-food-safety-rules-eased-in-rewrite/article_757285cc-a3c4-5489-b119-f440688cc2ef.html
p192
(lp193
sVhttp://abcnews.go.com/US/wireStory/us-california-release-roadmap-solar-projects-25707316
p194
(lp195
Vhttp://www.foxbusiness.com/industries/2014/09/23/us-california-release-roadmap-for-solar-projects/?utm_source=feedburner&utm_medium=feed&utm_campaign=Feed:%2520foxbusiness%2Flatest%2520%2528Internal%2520-%2520Latest%2520News%2520-%2520Text%2529
p196
aVhttp://www.foxbusiness.com/industries/2014/09/23/us-california-release-roadmap-for-solar-projects/?utm_source=feedburner&utm_medium=feed&utm_campaign=Feed%253A%2Bfoxbusiness%252Flatest%2B%2528Internal%2B-%2BLatest%2BNews%2B-%2BText%2529
p197
asVhttp://www.sfgate.com/news/article/NYC-unveils-new-greenhouse-gas-reduction-plan-5770616.php
p198
(lp199
Vhttp://www.chron.com/news/article/NYC-unveils-new-greenhouse-gas-reduction-plan-5770616.php
p200
asVhttp://www.wral.com/community-service-eyed-for-brooklyn-bridge-stunt/13936734/
p201
(lp202
Vhttp://www.therepublic.com/view/story/2ec23cf394ba40fd8fbb6875fe63dcfb/US--Brooklyn-Bridge-Arrest
p203
aVhttp://news.yahoo.com/community-eyed-brooklyn-bridge-stunt-201129123.html
p204
aVhttp://www.kirotv.com/ap/ap/top-news/community-service-eyed-for-brooklyn-bridge-stunt/nhCD3/
p205
aVhttp://www.dailyjournal.net/view/story/2ec23cf394ba40fd8fbb6875fe63dcfb/US--Brooklyn-Bridge-Arrest/
p206
aVhttp://www.miamiherald.com/2014/08/29/4316754/community-service-eyed-for-brooklyn.html
p207
aVhttp://www.pantagraph.com/news/weird-news/community-service-eyed-for-brooklyn-bridge-stunt/article_7b78f713-2ecf-53ff-9b8a-4b22795a2b51.html
p208
aVhttp://lacrossetribune.com/news/weird-news/community-service-eyed-for-brooklyn-bridge-stunt/article_89ed5659-5b45-5dbb-ab88-133cf6ecc12d.html
p209
asVhttp://www.inquisitr.com/1459780/amy-poehler-welcomes-superfan-to-parks-and-recreation-set/#utm_source%3Dfeedburner%26utm_medium%3Dfeed%26utm_campaign%3DFeed%253A%2BTheInquisitr_pop%2B%2528The%2BInquisitr%2B%25C2%25BB%2BEntertainment%2529
p210
(lp211
sVhttp://www.prweb.com/releases/InventHelp-Inventions/Multi-Bake-Baking/prweb12188234.htm
p212
(lp213
sVhttp://www.azcentral.com/story/news/nation/2014/08/31/feds-want-nuclear-waste-train-but-nowhere-to-go/14899649/
p214
(lp215
sVhttp://www.dailymail.co.uk/tvshowbiz/article-2747232/Amy-Poehler-spends-day-wheelchair-bound-superfan-set-Parks-And-Recreation.html?ITO=1490&ns_mchannel=rss&ns_campaign=1490
p216
(lp217
sVhttp://www.sacbee.com/2014/08/31/6668529/feds-want-nuclear-waste-train.html#mi_rss%3DWire%2520Nation%2FWorld
p218
(lp219
Vhttp://www.miamiherald.com/2014/08/31/4320212/feds-want-nuclear-waste-train.html
p220
aVhttp://newsok.com/feds-want-nuclear-waste-train-but-nowhere-to-go/article/feed/729310?custom_click=rss
p221
aVhttp://www.wdef.com/news/state/story/Feds-want-nuclear-waste-train-but-nowhere-to-go/8A47RYZe_UWJ-sppgnCBxA.cspx?rss=3471
p222
aVhttp://www.mynews4.com/content/news/national/story/Feds-want-nuclear-waste-train-but-nowhere-to-go/qYHMEf1U6UuVT9pXuvKbvw.cspx?rss=3299
p223
asVhttp://www.newsbiscuit.com/2014/09/20/farage-now-vowing-to-take-earth-out-of-the-solar-system/
p224
(lp225
sVhttp://www.marketwatch.com/story/representative-collins-takes-stand-for-consumers-food-safety-2014-09-23
p226
(lp227
sVhttp://www.csmonitor.com/USA/2014/0910/California-drought-Residents-use-less-water-but-is-that-enough-video
p228
(lp229
sVhttp://www.cleveland.com/parma/index.ssf/2014/08/parma_parma_heights_and_brookl.html
p230
(lp231
sVhttp://www.almanacnews.com/news/2014/09/10/menlo-park-to-spend-45000-on-drought-outreach
p232
(lp233
sVhttp://www.sltrib.com/sltrib/money/58379609-79/solar-energy-power-state.html.csp
p234
(lp235
sVhttp://www.sltrib.com/sltrib/world/58447682-68/energy-wind-power-project.html.csp
p236
(lp237
sVhttp://www.prweb.com/releases/InventHelp-Inventions/Gun-Mag-Duster/prweb12158941.htm
p238
(lp239
sVhttp://www.prweb.com/releases/InventHelp-/Flower-Holder-and-More/prweb12159196.htm
p240
(lp241
sVhttp://www.sfgate.com/business/energy/article/Wind-energy-proposal-would-light-Los-Angeles-homes-5776504.php
p242
(lp243
Vhttp://www.sacbee.com/2014/09/23/6731369/wind-energy-proposal-would-light.html#mi_rss%3DWire%2520Nation%2FWorld
p244
aVhttp://www.seattlepi.com/business/energy/article/Wind-energy-proposal-would-light-Los-Angeles-homes-5776504.php
p245
aVhttp://www.timesunion.com/business/energy/article/Wind-energy-proposal-would-light-Los-Angeles-homes-5776504.php
p246
aVhttp://www.sacbee.com/2014/09/23/6731369/wind-energy-proposal-would-light.html#mi_rss%3DAP%2520State%2520News
p247
aVhttp://www.sacbee.com/2014/09/23/6731369/wind-energy-proposal-would-light.html#mi_rss%3DLatest%2520News
p248
asVhttp://www.prweb.com/releases/InventHelp-Inventions/Fossil-Cover/prweb12166969.htm
p249
(lp250
sVhttp://www.prnewswire.com/news-releases/solar-energy-market-in-india-2014---2022-273458401.html
p251
(lp252
sVhttp://www.charlotteobserver.com/2014/08/27/5133071/hawaiian-electric-submits-energy.html#storylink%3Drss
p253
(lp254
Vhttp://www.miamiherald.com/2014/08/27/4312677/hawaiian-electric-submits-energy.html
p255
asVhttp://www.prweb.com/releases/InventHelp-Inventions/Perfect-Parallel-Squat/prweb12125294.htm
p256
(lp257
sVhttp://theenergycollective.com/rosana-francescato/497576/be-prepared-lot-more-solar-2025?utm_source=feedburner&utm_medium=feed&utm_campaign=The%2BEnergy%2BCollective%2B%2528all%2Bposts%2529&utm_content=FeedBurner
p258
(lp259
sVhttp://www.eleconomista.es/empresas-finanzas/noticias/6068619/09/14/Californians-cut-back-water-use-as-drought-continues.html
p260
(lp261
sVhttp://abcnews.go.com/Health/wireStory/fda-tweaks-food-safety-rules-due-year-25619914
p262
(lp263
sVhttp://business.ptjobsdb.com/database/28-alternative-energy/129-alternative-energy-highest-solar-product-new-video-page.html?utm_source=feedburner&utm_medium=feed&utm_campaign=Feed%253A%2BBusinessPart-timeJobsDatabase%2B%2528Business%2BPart-Time%2BJobs%2BDatabase%252C%2BOpportunities%252C%2BGreener%2BGrass%2BIdeas%2B%257C%2BBusiness.ptJobsDB.com%2529&utm_content=FeedBurner
p264
(lp265
sVhttp://www.prweb.com/releases/InventHelp-Inventions/Mobile-Texting-Game/prweb12159349.htm
p266
(lp267
sVhttp://www.kwwl.com/story/26386110/nasas-new-giant-rocket-system-passes-milestone
p268
(lp269
sVhttp://lasvegassun.com/news/2014/sep/05/work-begins-1-billion-solar-plant-nevada/
p270
(lp271
sVhttp://www.marketwatch.com/story/bear-republic-brewing-co-taps-enphase-energy-and-north-state-solar-energy-for-solar-installation-2014-08-28
p272
(lp273
sVhttp://www.wfsb.com/story/26606551/wind-energy-proposal-would-light-los-angeles-homes
p274
(lp275
Vhttp://www.myfoxal.com/story/26606551/wind-energy-proposal-would-light-los-angeles-homes
p276
aVhttp://www.nbcrightnow.com/story/26606551/wind-energy-proposal-would-light-los-angeles-homes
p277
asVhttp://news.yahoo.com/spacex-delays-dragon-cargo-ship-launch-nasa-due-071648808.html
p278
(lp279
Vhttp://news.sudanvisiondaily.com/details.html?rsnpid=240650
p280
asVhttp://www.csmonitor.com/Science/2014/0922/3D-printer-20-mice-now-en-route-to-space-station
p281
(lp282
sVhttp://www.prweb.com/releases/InventHelp-Inventions/Parent-Carter-Shaker/prweb12166719.htm
p283
(lp284
sVhttp://www.nbcnewyork.com/news/local/Tourist-Climb-Brooklyn-Bridge-Community-Service-Judge-273226761.html?_osource=SocialFlowTwt_NYBrand
p285
(lp286
sVhttp://newyork.cbslocal.com/2014/09/21/nyc-unveils-new-greenhouse-gas-reduction-plan/
p287
(lp288
sVhttp://www.prnewswire.com/news-releases/representative-collins-takes-stand-for-consumers--food-safety-276574881.html
p289
(lp290
sVhttp://dailycaller.com/2014/09/05/critics-say-cory-gardners-new-ad-is-full-of-hot-air/
p291
(lp292
sVhttp://www.portorchardindependent.com/opinion/275618421.html?utm_source=feedburner&utm_medium=feed&utm_campaign=Feed%253A%2Bpoiall%2B%2528All%2BStories%2B-%2BPort%2BOrchard%2BIndependent%2529
p293
(lp294
Vhttp://www.portorchardindependent.com/opinion/275618421.html?utm_source=feedburner&utm_medium=feed&utm_campaign=Feed%253A%2Bpoiopinion%2B%2528Opinion%2B-%2BPort%2BOrchard%2BIndependent%2529
p295
asVhttp://www.finanznachrichten.de/nachrichten-2014-08/31242542-solar3d-s-sunworks-division-triples-size-of-headquarters-the-company-secures-a-20-000-square-foot-building-in-roseville-ca-to-accommodate-its-proj-256.htm
p296
(lp297
sVhttp://www.palmbeachpost.com/ap/ap/top-news/wind-energy-proposal-would-light-los-angeles-homes/nhS3t/?ecmp=pbp_social_twitter_2014_sfp
p298
(lp299
sVhttp://www.prweb.com/releases/InventHelp-Inventions/Kitchen-Grease-Absorber/prweb12156558.htm
p300
(lp301
sVhttp://reports.pr-inside.com/report-published-solar-systems-pty-r4109732.htm
p302
(lp303
sVhttp://www.space.com/27219-spacex-dragon-launch-bad-weather.html
p304
(lp305
Vhttp://www.space.com/27219-spacex-dragon-launch-bad-weather.html?utm_source=feedburner&amp%3Butm_medium=feed&amp%3Butm_campaign=Feed%253A%2Bspaceheadlines%2B%28SPACE.com%2BHeadline%2BFeed%29
p306
asVhttp://www.taipeitimes.com/News/editorials/archives/2014/09/24/2003600431
p307
(lp308
sVhttp://www.prnewswire.com/news-releases/nasa-astronaut-to-speak-to-clinton-global-initiative-meeting-attendees-from-international-space-station-276475901.html
p309
(lp310
sVhttp://www.sify.com/news/feds-want-nuclear-waste-train-but-nowhere-to-go-news-others-oi5uJldhaihjj.html
p311
(lp312
sVhttp://www.marketwatch.com/story/suds-water-management-summit-goes-to-cambridge-uk-in-december-2014-08-29
p313
(lp314
sVhttp://www.detroitnews.com/article/20140902/METRO01/309020105/1361/Detroit-bankruptcy-judge-weighing-whether-to-halt-water-shutoffs
p315
(lp316
sVhttp://abcnews.go.com/US/wireStory/work-begins-billion-solar-plant-nevada-25273481
p317
(lp318
sVhttp://www.seattlepi.com/news/science/article/FDA-tweaks-food-safety-rules-due-next-year-5766737.php
p319
(lp320
sVhttp://www.weeklytimesnow.com.au/business/irrigation-water-bills-set-to-fall-as-carbon-tax-is-swept-away/story-fnkjyj14-1227045031008
p321
(lp322
sVhttp://www.jpl.nasa.gov/news/news.php?release=2014-317
p323
(lp324
sVhttp://www.engadget.com/2014/09/21/hydroelectric-house-human-hamster-wheel-saltwater-car/?ncid=rss_truncated
p325
(lp326
Vhttp://www.engadget.com/2014/09/21/hydroelectric-house-human-hamster-wheel-saltwater-car/?ncid=rss_truncated&utm_source=feedburner&utm_medium=feed&utm_campaign=Feed%253A%2Bweblogsinc%252Fengadget%2B%2528Engadget%2529
p327
aVhttp://www.engadget.com/2014/09/21/hydroelectric-house-human-hamster-wheel-saltwater-car/?ncid=rss_truncated&utm_source=feedburner&utm_medium=feed&utm_campaign=Feed:%2520weblogsinc%2Fengadget%2520%2528Engadget%2529
p328
asVhttp://www.renewableenergyworld.com/rea/news/article/2014/09/a-landmark-plan-for-renewable-energy-development-in-the-california-desert?cmpid=rss
p329
(lp330
sVhttp://www.prweb.com/releases/InventHelp-Inventions/Archery-Boresighter-Hunt/prweb12159033.htm
p331
(lp332
sVhttp://www.prweb.com/releases/InventHelp-Inventions/The-B-F-Bingo-The-BF/prweb12169672.htm
p333
(lp334
sVhttp://www.thedailybeast.com/cheats/2014/08/31/feds-lack-radioactive-waste-storage-site.html
p335
(lp336
sVhttp://nvonews.com/first-3-d-printer-sent-to-iss-along-with-mice/
p337
(lp338
sVhttp://www.patrick.af.mil/news/story.asp?id=123425565
p339
(lp340
sVhttp://www.prweb.com/releases/InventHelp-Inventions/Apparel-Quick-Z/prweb12125434.htm
p341
(lp342
sVhttp://www.statecolumn.com/2014/08/u-s-government-seeking-opinions-on-future-nuclear-waste-transportation/
p343
(lp344
sVhttp://news.yahoo.com/brooklyn-bridge-park-watch-latest-193004829.html
p345
(lp346
Vhttp://ny.curbed.com/archives/2014/08/29/brooklyn_bridge_park_watch.php
p347
asVhttp://www.laboratoryequipment.com/news/2014/09/fda-tweak-food-safety-rules
p348
(lp349
sVhttp://www.jrn.com/now-trending/SpaceX-Dragon-mission-brings-3-D-printer-to-space-275931701.html
p350
(lp351
sVhttp://www.prweb.com/releases/InventHelp-Inventions/Home-Gator-Retrieval-Sys/prweb12169940.htm
p352
(lp353
sVhttp://www.dailynews.com/general-news/20140928/groups-launch-campaigns-on-gmo-labeling-in-oregon
p354
(lp355
Vhttp://www.komonews.com/news/local/Groups-launch-campaigns-on-GMO-labeling-in-Oregon-277366861.html
p356
aVhttp://www.redlandsdailyfacts.com/article/20140928/NEWS/140929496
p357
aVhttp://www.kcby.com/politics/Groups-launch-campaigns-on-GMO-labeling-in-Oregon-277366861.html
p358
asVhttp://www.ny1.com/content/news/214690/new-security-measures-in-place-at-brooklyn-bridge/
p359
(lp360
sVhttp://www.sify.com/news/us-california-release-roadmap-for-solar-projects-news-others-ojybayighcjji.html
p361
(lp362
sVhttp://www.prweb.com/releases/InventHelp-Inventions/Pets-Clean-Paw/prweb12166826.htm
p363
(lp364
sVhttp://cleantechnica.com/2014/09/24/new-doi-plan-california-desert-renewables/?utm_source=feedburner&utm_medium=feed&utm_campaign=Feed%253A%2BIM-cleantechnica%2B%2528CleanTechnica%2529
p365
(lp366
sVhttp://www.bradenton.com/2014/09/23/5375177/wind-power-proposed-to-supply.html#storylink%3Drss
p367
(lp368
Vhttp://lacrossetribune.com/news/national/proposal-would-send-wyoming-wind-energy-to-la/article_3c4fd71c-136a-578b-97a7-d9e5e2378f91.html
p369
aVhttp://siouxcityjournal.com/news/national/proposal-would-send-wyoming-wind-energy-to-la/article_bfb8e8da-8bac-58a9-995b-5ebe8125507c.html
p370
aVhttp://azdailysun.com/news/national/proposal-would-send-wyoming-wind-energy-to-la/article_ccc1a93e-5200-581b-8390-25fe84315931.html
p371
aVhttp://globegazette.com/news/national/proposal-would-send-wyoming-wind-energy-to-la/article_d94f2def-4239-529b-a574-77d86199186b.html
p372
aVhttp://www.winonadailynews.com/news/national/proposal-would-send-wyoming-wind-energy-to-la/article_3e0180cb-5a19-5020-9f30-99490914c6aa.html
p373
aVhttp://billingsgazette.com/news/national/proposal-would-send-wyoming-wind-energy-to-la/article_4850dcca-ebd1-54d4-8e8a-0adfb5d5a33c.html
p374
aVhttp://www.stltoday.com/news/national/proposal-would-send-wyoming-wind-energy-to-la/article_9083f04e-145a-5f3a-82db-542c616d035e.html
p375
asVhttp://www.knoxnews.com/news/nation-and-world/feds-want-nuclear-waste-train-but-nowhere-to-go_71946860
p376
(lp377
sVhttp://in.reuters.com/article/2014/09/19/us-aerospace-space-icao-idINKBN0HE2H020140919
p378
(lp379
sVhttp://hosted2.ap.org/APDEFAULT/bbd825583c8542898e6fa7d440b9febc/Article_2014-09-19-US--Food%20Safety/id-fac2256d3b9e4c53bc558ddc1d62a2c1
p380
(lp381
Vhttp://siouxcityjournal.com/ap/business/fda-revises-food-safety-rules-due-next-year/article_750bd103-bb35-5048-a10e-427046453f45.html
p382
aVhttp://wtop.com/289/3705304/FDA-revises-food-safety-rules-due-next-year
p383
aVhttp://www.biosciencetechnology.com/news/2014/09/fda-revises-food-safety-rules-due-next-year
p384
asVhttp://www.ajc.com/ap/ap/business/wind-power-proposed-to-supply-los-angeles-area/nhSfj/
p385
(lp386
sVhttp://gulfnews.com/business/general/work-begins-on-1b-solar-plant-in-nevada-1.1381430?utm_content=1.1381430&utm_medium=RSS&utm_source=Feeds&utm_campaign=Work_begins_on_%25241b_solar_plant_in_Nevada&localLinksEnabled=false&utm_term=Business_RSS_feed
p387
(lp388
sVhttp://www.cbsnews.com/news/spacex-rocket-launch-to-resupply-international-space-station-delayed/?utm_source=feedburner&amp%3Butm_medium=feed&amp%3Butm_campaign=Feed%253A%2Btech_talk%2B%28CBS%2BNews%2B-%2BTech%2BTalk%29
p389
(lp390
Vhttp://www.cbsnews.com/news/spacex-rocket-launch-to-resupply-international-space-station-delayed/
p391
asVhttp://www.philly.com/philly/news/nation_world/20140901_Hauling_nuclear_waste.html
p392
(lp393
sVhttp://www.sify.com/news/feds-want-nuclear-waste-train-but-nowhere-to-go-news-others-oi5uJldgehidg.html
p394
(lp395
sVhttp://www.prweb.com/releases/InventHelp-Inventions/CIA-Coach-Instruct-Aid/prweb12167156.htm
p396
(lp397
sVhttp://www.marketwatch.com/story/companies-propose-8-billion-green-energy-plan-for-los-angeles-2014-09-23
p398
(lp399
sVhttp://www.pv-tech.org/news/us_earmarks_800000_hectares_of_california_desert_for_renewables?utm_source=pvtech-feeds&utm_medium=rss&utm_campaign=everything-rss-feed
p400
(lp401
sVhttp://www.kentucky.com/2014/09/24/3444759/wind-energy-proposal-would-light.html#storylink%3Drss
p402
(lp403
Vhttp://www.theolympian.com/2014/09/23/3334871/wind-energy-proposal-would-light.html#storylink%3Drss
p404
aVhttp://www.tri-cityherald.com/2014/09/23/3168128/wind-energy-proposal-would-light.html#storylink%3Drss
p405
aVhttp://www.stltoday.com/business/technology/wind-energy-proposal-would-light-los-angeles-homes/article_5b8ec126-0412-52fd-ac68-d42fda55bbfa.html
p406
aVhttp://lacrossetribune.com/business/technology/wind-energy-proposal-would-light-los-angeles-homes/article_eabf8736-f3fe-54a9-b1fd-56f4af33c287.html
p407
aVhttp://hosted2.ap.org/APDEFAULT/f70471f764144b2fab526d39972d37b3/Article_2014-09-24-US--Wind%20Farm-Los%20Angeles%20Power/id-50db4bd80d26497890aac0cbd2978c3e
p408
aVhttp://www.winonadailynews.com/business/technology/wind-energy-proposal-would-light-los-angeles-homes/article_4b3a8b01-fdb5-53cc-be10-f6e210202fdb.html
p409
aVhttp://www.kentucky.com/2014/09/24/3444759/wind-energy-proposal-would-light.html
p410
aVhttp://onlineathens.com/breaking-news/2014-09-24/wind-energy-proposal-would-light-los-angeles-homes
p411
aVhttp://www.winonadailynews.com/business/wind-energy-proposal-would-light-los-angeles-homes/article_4b3a8b01-fdb5-53cc-be10-f6e210202fdb.html
p412
aVhttp://lacrossetribune.com/business/wind-energy-proposal-would-light-los-angeles-homes/article_eabf8736-f3fe-54a9-b1fd-56f4af33c287.html
p413
aVhttp://www.stltoday.com/business/national-and-international/wind-energy-proposal-would-light-los-angeles-homes/article_5b8ec126-0412-52fd-ac68-d42fda55bbfa.html
p414
asVhttp://hosted2.ap.org/CARIE/6b85546689744819aa7a64cd3ca6cee6/Article_2014-08-31-US-Nuclear-Waste-Train/id-f299775022684996920d88387c9f3f35
p415
(lp416
Vhttp://news.yahoo.com/feds-want-nuclear-waste-train-nowhere-150232747.html
p417
aVhttp://www.bradenton.com/2014/08/31/5332157/feds-want-nuclear-waste-train.html#storylink%3Drss
p418
aVhttp://hosted2.ap.org/CARIE/6b85546689744819aa7a64cd3ca6cee6/Article_2014-08-31-US--Nuclear%20Waste-Train/id-c318e5f801d347158855d078f70bf83d
p419
aVhttps://news.yahoo.com/feds-want-nuclear-waste-train-nowhere-150232747.html
p420
asVhttp://www.prweb.com/releases/InventHelp-Inventions/Football-Freshball/prweb12167051.htm
p421
(lp422
sVhttp://www.marketwatch.com/story/nasa-announces-student-focused-experiment-program-awards-2014-09-05
p423
(lp424
sVhttp://www.renew-grid.com/e107_plugins/content/content.php?content.11270
p425
(lp426
sVhttp://hosted2.ap.org/APDEFAULT/f70471f764144b2fab526d39972d37b3/Article_2014-09-23-US--Wind%20Farm-Los%20Angeles%20Power/id-e1503f3f3ec44f45a76b870dc9e00444
p427
(lp428
sVhttp://chronicle.augusta.com/news/business/2014-09-13/georgia-power-price-plan-rattles-solar-companies
p429
(lp430
sVhttp://www.prweb.com/releases/InventHelp-Inventions/Truck-Drivers-Arm-Friend/prweb12169703.htm
p431
(lp432
sVhttp://www.goerie.com/article/20140901/NEWS06/309019981/Feds-want-nuclear-waste-train-but-nowhere-to-go
p433
(lp434
sVhttp://www.marketwatch.com/story/sunshare-announces-program-to-provide-free-electricity-from-its-community-solar-garden-to-families-of-students-at-academy-360-2014-08-28
p435
(lp436
sVhttp://www.popherald.com/content/2014/09/3267-spacex-falcon-rocket-launch-3d-printer-mice.html
p437
(lp438
sVhttp://www.prweb.com/releases/InventHelp-Inventions/Automotive-The-View-Slot/prweb12169348.htm
p439
(lp440
sVhttp://www.jsonline.com/business/pressrelease/national-press-releases/accessory-protects-credit-debit-and-gift-cards-from-scratches-and-wear--designed-by-inventhelp-clients-mlm510-275939691.html
p441
(lp442
sVhttp://www.10news.com/news/hearings-start-on-sdge-proposed-rate-change-091614
p443
(lp444
sVhttp://www.theglobeandmail.com/report-on-business/international-business/us-business/proposal-aims-to-send-wyoming-wind-energy-to-la-area-within-a-decade/article20748938/?cmpid=rss1
p445
(lp446
Vhttp://www.theglobeandmail.com/report-on-business/international-business/us-business/proposal-aims-to-send-wyoming-wind-energy-to-la-area-within-a-decade/article20748938/?cmpid=rss1&utm_source=feedburner&utm_medium=feed&utm_campaign=Feed:%2520TheGlobeAndMail-Front%2520%2528The%2520Globe%2520and%2520Mail%2520-%2520Latest%2520News%2529
p447
asVhttp://www.prweb.com/releases/InventHelp-Inventions/Basketball-Balla-Rific/prweb12158954.htm
p448
(lp449
sVhttp://www.nbc29.com/story/26447273/dominion-installing-solar-project-in-central-va
p450
(lp451
sVhttp://hosted2.ap.org/APDEFAULT/f70471f764144b2fab526d39972d37b3/Article_2014-09-23-US--Wind%20Farm-Los%20Angeles%20Power/id-49c1b83e2f1a44fab41057e4c1a979ec
p452
(lp453
Vhttp://seattletimes.com/html/nationworld/2024608075_apxwindfarmlosangelespower.html?syndication=rss
p454
aVhttp://billingsgazette.com/news/national/wind-energy-proposal-would-light-los-angeles-homes/article_4850dcca-ebd1-54d4-8e8a-0adfb5d5a33c.html
p455
aVhttp://azdailysun.com/news/national/wind-energy-proposal-would-light-los-angeles-homes/article_ccc1a93e-5200-581b-8390-25fe84315931.html
p456
aVhttp://www.winonadailynews.com/news/national/wind-energy-proposal-would-light-los-angeles-homes/article_3e0180cb-5a19-5020-9f30-99490914c6aa.html
p457
aVhttp://lacrossetribune.com/news/national/wind-energy-proposal-would-light-los-angeles-homes/article_3c4fd71c-136a-578b-97a7-d9e5e2378f91.html
p458
aVhttp://www.stltoday.com/news/national/wind-energy-proposal-would-light-los-angeles-homes/article_9083f04e-145a-5f3a-82db-542c616d035e.html
p459
aVhttp://siouxcityjournal.com/news/national/wind-energy-proposal-would-light-los-angeles-homes/article_bfb8e8da-8bac-58a9-995b-5ebe8125507c.html
p460
asVhttp://www.irishsun.com/index.php/sid/225923271/scat/a9927dde6777aafc
p461
(lp462
sVhttp://www.prweb.com/releases/InventHelp-Inventions/Food-Munch-Twine/prweb12125315.htm
p463
(lp464
sVhttp://www.kentucky.com/2014/08/27/3398987/hawaiian-electric-submits-energy.html#storylink%3Drss
p465
(lp466
Vhttp://www.theolympian.com/2014/08/27/3288161/hawaiian-electric-submits-renewable.html#storylink%3Drss
p467
asVhttp://www.jsonline.com/business/pressrelease/national-press-releases/keeps-chainsaw-chains-neat-and-easily-accessible-with-jacks-pack--designed-by-inventhelp-client-mlm519-275945131.html
p468
(lp469
sVhttp://www.prweb.com/releases/InventHelp-Inventions/Braille-Microwave-Blind/prweb12157388.htm
p470
(lp471
sVhttp://www.dailymailtimes.com/fda-to-rewrite-rules-for-food-safety/197/
p472
(lp473
sVhttp://www.sify.com/news/is-lemon-juice-new-environmental-friendly-solution-for-space-designers-news-international-ojvlJldgedaii.html
p474
(lp475
sVhttp://www.hollywoodreporter.com/live-feed/how-amy-poehler-made-a-730633?utm_source=twitter
p476
(lp477
sVhttp://www.pv-tech.org/news/nextera_energy_first_solar_begin_work_on_250mw_nevada_plant?utm_source=pvtech-feeds&utm_medium=rss&utm_campaign=news-rss-feed
p478
(lp479
sVhttp://news.yahoo.com/fda-tweaks-food-safety-rules-due-next-132207865--finance.html
p480
(lp481
Vhttp://www.therepublic.com/view/story/8ee9ef9c60254dc2b05654b86716d13b/US--Food-Safety
p482
aVhttp://www.jsonline.com/business/national/fda-tweaks-food-safety-rules-due-next-year8ee9ef9c60254dc2b05654b86716d13b-275729761.html
p483
aVhttp://www.ajc.com/ap/ap/top-news/fda-tweaks-food-safety-rules-due-next-year/nhQbT/
p484
aVhttp://www.deseretnews.com/article/765659920/FDA-tweaks-food-safety-rules-due-next-year.html
p485
asVhttp://www.news10.com/story/26406407/community-service-eyed-for-brooklyn-bridge-stunt
p486
(lp487
sVhttp://news.yahoo.com/us-california-release-roadmap-solar-projects-192136776--finance.html
p488
(lp489
Vhttp://hosted2.ap.org/CARIE/6b85546689744819aa7a64cd3ca6cee6/Article_2014-09-23-US-Solar-Desert-Boom/id-abc2eec2270b4f079291bb3ccd596d7a
p490
aVhttp://www.tri-cityherald.com/2014/09/23/3167170/us-california-release-roadmap.html#storylink%3Drss
p491
aVhttp://www.theolympian.com/2014/09/23/3333918/us-california-release-roadmap.html#storylink%3Drss
p492
aVhttp://www.charlotteobserver.com/2014/09/23/5194531/us-california-release-roadmap.html#storylink%3Drss
p493
aVhttp://www.sacbee.com/2014/09/23/6730035/us-california-release-roadmap.html#mi_rss%3DWire%2520Nation%2FWorld
p494
aVhttp://www.sacbee.com/2014/09/23/6730035/us-california-release-roadmap.html#mi_rss%3DAP%2520State%2520News
p495
aVhttp://billingsgazette.com/news/national/us-california-release-roadmap-for-solar-projects/article_2b38179a-d859-578d-ade6-a919082645c3.html
p496
aVhttp://globegazette.com/news/national/us-california-release-roadmap-for-solar-projects/article_a3a77bac-ea97-5bdd-a3e2-3901b7f334f7.html
p497
aVhttp://www.winonadailynews.com/news/national/us-california-release-roadmap-for-solar-projects/article_64c22339-9641-5b5e-903c-8a5ded8ee0d2.html
p498
aVhttp://azdailysun.com/news/national/us-california-release-roadmap-for-solar-projects/article_47c63554-4ccf-5521-911f-063e51db029b.html
p499
aVhttp://lacrossetribune.com/news/national/us-california-release-roadmap-for-solar-projects/article_fdd90720-ebe7-5141-99f7-3af1aaddd4ab.html
p500
aVhttp://www.ajc.com/ap/ap/top-news/us-california-release-roadmap-for-solar-projects/nhSh2/
p501
aVhttp://www.stltoday.com/news/national/us-california-release-roadmap-for-solar-projects/article_387de40d-cba7-59b0-8b43-b9454badb1d7.html
p502
asVhttp://www.tribtown.com/view/story/2ec23cf394ba40fd8fbb6875fe63dcfb/US--Brooklyn-Bridge-Arrest
p503
(lp504
sVhttp://www.hispanicbusiness.com/2014/9/10/california_drought_water_use_down_in.htm
p505
(lp506
sVhttp://www.techtimes.com/articles/14505/20140830/whiskey-in-space.htm
p507
(lp508
sVhttp://www.foxbusiness.com/markets/2014/08/31/train-to-nowhere-feds-seeking-train-cars-to-haul-nuclear-waste-but-nowhere-yet/?utm_source=feedburner&utm_medium=feed&utm_campaign=Feed%253A%2Bfoxbusiness%252Flatest%2B%2528Internal%2B-%2BLatest%2BNews%2B-%2BText%2529
p509
(lp510
Vhttp://www.foxbusiness.com/markets/2014/08/31/train-to-nowhere-feds-seeking-train-cars-to-haul-nuclear-waste-but-nowhere-yet/?utm_source=feedburner&utm_medium=feed&utm_campaign=Feed:%2520foxbusiness%2Ftransportation%2520%2528Internal%2520-%2520Transportation%2520-%2520Text%2529
p511
aVhttp://www.foxbusiness.com/markets/2014/08/31/train-to-nowhere-feds-seeking-train-cars-to-haul-nuclear-waste-but-nowhere-yet/?utm_source=feedburner&utm_medium=feed&utm_campaign=Feed:%2520foxbusiness%2Flatest%2520%2528Internal%2520-%2520Latest%2520News%2520-%2520Text%2529
p512
asVhttp://www.prweb.com/releases/InventHelp-Inventions/Medical-Wound-Cleaner/prweb12169929.htm
p513
(lp514
sVhttp://www.dailymail.co.uk/news/article-2763959/SpaceX-Falcon-rocket-blasts-Florida.html?%253Fito%253D=social-twitter_dailymailus
p515
(lp516
Vhttp://www.dailymail.co.uk/news/article-2763959/SpaceX-Falcon-rocket-blasts-Florida.html?ITO=1490&ns_mchannel=rss&ns_campaign=1490
p517
asVhttp://www.marketwatch.com/story/nasa-scientist-to-discuss-the-case-of-the-missing-martian-atmosphere-at-library-of-congress-lecture-2014-09-12
p518
(lp519
sVhttp://www.prnewswire.com/news-releases/sdges-residential-rate-reform-proposal-seeks-fairness-for-all-275348251.html
p520
(lp521
sVhttp://www.bizjournals.com/boston/blog/techflash/2014/09/raytheon-receives-109m-contract-for-patriot.html?utm_source=feedburner&utm_medium=feed&utm_campaign=Feed%253A%2Bvertical_47%2B%2528Telecom%2BIndustry%2BNews%2529
p522
(lp523
sVhttp://www.prweb.com/releases/InventHelp-Inventions/Home-Fence-Inn/prweb12166845.htm
p524
(lp525
sVhttp://www.prweb.com/releases/InventHelp-Inventions/Outdoor-Mac-Light/prweb12169761.htm
p526
(lp527
sVhttp://uncovercalifornia.com/content/21373-department-energy-evaluating-nuclear-waste-train-idea
p528
(lp529
sVhttp://blog.2modern.com/2014/09/fanimation-sale-highlights-national-ceiling-fan-day.html?utm_source=feedburner&utm_medium=feed&utm_campaign=Feed%253A%2B2modernDesignTalk%2B%25282Modern%2BBlog%2529&utm_content=FeedBurner
p530
(lp531
sVhttp://www.prweb.com/releases/InventHelp-Inventions/My-Sleep-Personal-Alarm/prweb12159399.htm
p532
(lp533
sVhttp://brooklynheightsblog.com/archives/69635?utm_source=feedburner&utm_medium=feed&utm_campaign=Feed%253A%2Bbrooklynheightsblog%252FtuwF%2B%2528Brooklyn%2BHeights%2BBlog%2529&utm_content=FeedBurner
p534
(lp535
sVhttp://www.denverpost.com/breakingnews/ci_26468178/cory-gardner-senate-candidate-colo-touts-failed-measure?source=rss
p536
(lp537
Vhttp://www.denverpost.com/localpolitics/ci_26468178/cory-gardner-senate-candidate-colo-touts-failed-measure
p538
asVhttp://www.channelnewsasia.com/news/asiapacific/china-shows-off-new/1356780.html
p539
(lp540
Vhttp://www.spacewar.com/reports/China_shows_off_new_missile_test_on_primetime_television_999.html
p541
aVhttp://www.defencetalk.com/china-shows-off-new-missile-test-on-primetime-television-60556/
p542
asVhttp://www.contracostatimes.com/breaking-news/ci_26501733/california-drought-statewide-water-use-drops?source=rss
p543
(lp544
sVhttp://www.miamiherald.com/2014/09/03/4324679/southcom-showing-off-new-disaster.html
p545
(lp546
Vhttp://www.armytimes.com/article/20140903/NEWS04/309030032
p547
asVhttp://www.businessinsider.com/elon-musk-spacex-space-taxi-dragon-v2-pictures-2014-9?utm_source=feedburner&utm_medium=feed&utm_campaign=Feed%253A%2Btypepad%252Falleyinsider%252Fsilicon_alley_insider%2B%2528Silicon%2BAlley%2BInsider%2529
p548
(lp549
sVhttp://bostonherald.com/news_opinion/national/2014/08/community_service_eyed_for_brooklyn_bridge_stunt?utm_source=feedburner&utm_medium=feed&utm_campaign=Feed%253A%2Bbostonherald%252Fnews%252Fnational%252Fgeneral%2B%2528Around%2Bthe%2BNation%2B-%2BNews%2B%2526%2BOpinion%2B-%2BBostonHerald.com%2529&utm_content=FeedBurner
p550
(lp551
Vhttp://siouxcityjournal.com/news/weird-news/community-service-eyed-for-brooklyn-bridge-stunt/article_8ee8de15-9fff-5f80-af4c-2f53ec026a1b.html
p552
asVhttp://www.elp.com/articles/2014/08/hawaiian-electric-files-65-percent-renewable-energy-plan.html
p553
(lp554
sVhttp://patch.com/maryland/potomac/where-does-fillmore-rank-billboards-list-top-25-music-clubs-0
p555
(lp556
Vhttp://patch.com/maryland/northpotomac/where-does-fillmore-rank-billboards-list-top-25-music-clubs
p557
asVhttp://www.prnewswire.com/news-releases/sunshare-announces-program-to-provide-free-electricity-from-its-community-solar-garden-to-families-of-students-at-academy-360-273105791.html
p558
(lp559
sVhttp://www.upstartmagazine.com/nuclear-waste-is-about-to-move/2910332/
p560
(lp561
sVhttp://www.theregister.co.uk/2014/09/21/spacex_dragon_lifts_off_to_nasa_space_station_3d_printer_mice/
p562
(lp563
sVhttp://www.wfsb.com/story/26575990/fda-revises-food-safety-rules-due-next-year
p564
(lp565
Vhttp://www.nbcrightnow.com/story/26575990/fda-revises-food-safety-rules-due-next-year
p566
aVhttp://www.myfoxal.com/story/26575990/fda-revises-food-safety-rules-due-next-year
p567
asVhttp://www.prweb.com/releases/InventHelp-Inventions/Jacks-Pack/prweb12167130.htm
p568
(lp569
sVhttp://www.denverpost.com/business/ci_26593057/wyoming-wind-farm-energy-would-go-l?source=rss
p570
(lp571
sVhttp://www.onlineamd.com/Article.aspx?article_id=170116
p572
(lp573
sVhttp://www.hispanicbusiness.com/2014/8/31/feds_want_nuclear_waste_train_but.htm
p574
(lp575
sVhttp://www.floridatoday.com/story/tech/science/space/2014/09/21/spacex-dragon-on-way-to-iss/16000349/
p576
(lp577
sVhttp://www.prweb.com/releases/InventHelp-Inventions/SSP-and-C-Safety-SSP_C/prweb12158915.htm
p578
(lp579
sVhttp://wtop.com/209/3707874/US-California-release-roadmap-for-solar-projects
p580
(lp581
sVhttp://www.dailytelegraph.com.au/news/breaking-news/work-begins-on-solar-plant-in-nevada/story-fni0xqlk-1227049823852?utm_source=feedburner&utm_medium=feed&utm_campaign=Feed%253A%2Bdailytelegraphbreakingnewsndm%2B%2528Daily%2BTelegraph%2B%257C%2BBreaking%2BNews%2529&nk=1339ac6a219f9f6d0141c16a1cbf9a61
p582
(lp583
Vhttp://www.news.com.au/world/breaking-news/work-begins-on-solar-plant-in-nevada/story-e6frfkui-1227049823852?from=public_rss
p584
aVhttp://www.perthnow.com.au/news/breaking-news/work-begins-on-solar-plant-in-nevada/story-fnhrvfwz-1227049823852?from=public_rss&nk=bd5d109964243836063d66c6b2df6230
p585
asVhttp://www.sify.com/news/nasa-launches-website-mars-challenge-for-public-news-others-ojvoajcbgjdfb.html
p586
(lp587
sVhttp://www.palmbeachpost.com/ap/ap/florida/southcom-showing-off-new-disaster-relief-gear/nhD7C/?ecmp=pbp_social_twitter_2014_sfp
p588
(lp589
sVhttp://www.coloradoindependent.com/149108/ap-fact-checks-gardner-claim-that-he-helped-launch-green-energy-economy
p590
(lp591
sVhttp://www.esmagazine.com/articles/96738-a-starring-role-for-universal-city-retrofit
p592
(lp593
sVhttp://www.prweb.com/releases/InventHelp-Inventions/Baby-Teezer/prweb12156653.htm
p594
(lp595
sVhttp://hosted2.ap.org/APDEFAULT/f70471f764144b2fab526d39972d37b3/Article_2014-09-23-US--Wind%20Farm-Los%20Angeles%20Power/id-1d41fc47900641888ad4ef4e3c4db020
p596
(lp597
sVhttp://www.wfsb.com/story/26606551/proposal-would-send-wyoming-wind-energy-to-la
p598
(lp599
Vhttp://www.nbcrightnow.com/story/26606551/proposal-would-send-wyoming-wind-energy-to-la
p600
asVhttp://www.irishexaminer.com/business/china-cites-low-public-support-for-suspension-of-gm-soybean-import-288959.html
p601
(lp602
sVhttp://www.wfsb.com/story/26611732/wind-energy-proposal-would-light-los-angeles-homes
p603
(lp604
Vhttp://www.fox19.com/story/26611733/wind-energy-proposal-would-light-los-angeles-homes
p605
aVhttp://www.kswt.com/story/26611732/wind-energy-proposal-would-light-los-angeles-homes
p606
asVhttp://www.prweb.com/releases/InventHelp-Inventions/Parent-Kids-Of-Steel/prweb12166991.htm
p607
(lp608
sVhttp://www.latinpost.com/articles/21916/20140920/delayed-by-weather-nasas-weather-observing-rapidscat-reset-for-launch.htm
p609
(lp610
sVhttp://www.itemlive.com/news/national/us-california-release-roadmap-for-solar-projects/article_f6c992e2-2ce8-572c-89e3-94008cb695eb.html
p611
(lp612
sVhttp://www.ibtimes.com/spacex-launch-delayed-watch-rescheduled-iss-cargo-resupply-mission-sunday-1692384
p613
(lp614
sVhttp://www.renew-grid.com/e107_plugins/content/content.php?content.11266
p615
(lp616
sVhttp://www.prweb.com/releases/InventHelp-Inventions/Sta-Pressed-Hanger/prweb12158968.htm
p617
(lp618
sVhttp://www.prnewswire.com/news-releases/doe-awards-strengthen-qm-power-focus-to-become-preeminent-energy-solutions-provider-for-hvacr-273419931.html
p619
(lp620
sVhttp://www.usatoday.com/story/tech/2014/08/31/nasa-space-station-crew-capsule/14905385/?utm_source=feedblitz&utm_medium=FeedBlitzRss&utm_campaign=usatoday-techtopstories
p621
(lp622
sVhttp://www.prweb.com/releases/InventHelp-Inventions/Automotive-C-Scarp/prweb12166890.htm
p623
(lp624
sVhttp://www.prweb.com/releases/InventHelp-Inventions/Chiropractic-The-Stretch/prweb12164546.htm
p625
(lp626
sVhttp://www.prweb.com/releases/InventHelp-Inventions/Less-Wire-Systems-Elec/prweb12169841.htm
p627
(lp628
sVhttp://la.curbed.com/archives/2014/09/9_of_calis_10_biggest_water_wasters_are_in_southern_california.php
p629
(lp630
sVhttp://abcnews.go.com/Technology/wireStory/wind-energy-proposal-light-los-angeles-homes-25718476
p631
(lp632
sVhttp://www.prweb.com/releases/InventHelp-Inventions/Pets-Poop-Collector/prweb12164454.htm
p633
(lp634
sVhttp://www.thehindu.com/sci-tech/loading-of-commands-for-mars-orbiter-begins/article6410296.ece
p635
(lp636
sVhttp://www.shreveporttimes.com/story/money/business/2014/09/20/fda-tweaks-food-safety-rules-due-next-year/15953611/
p637
(lp638
sVhttp://www.webwire.com/ViewPressRel.asp?aId=191033
p639
(lp640
sVhttp://www.usatoday.com/story/news/nation-now/2014/09/09/nasa-tweets-time-capsule/15323293/?utm_source=dlvr.it&utm_medium=twitter
p641
(lp642
sVhttp://www.startribune.com/nation/273996101.html
p643
(lp644
Vhttp://www.startribune.com/politics/national/273996101.html
p645
asVhttp://www.finanznachrichten.de/nachrichten-2014-09/31281002-doe-awards-strengthen-qm-power-focus-to-become-preeminent-energy-solutions-provider-for-hvacr-008.htm
p646
(lp647
sVhttp://www.spaceflightnow.com/falcon9/013/140921launch/
p648
(lp649
sVhttp://www.broadwayworld.com/bwwtv/article/NASA-to-hold-Sept-17-Briefing-on-MAVEN-Mars-Orbit-Insertion-Events-Coverage-20140916
p650
(lp651
sVhttp://www.greenfieldreporter.com/view/story/8ee9ef9c60254dc2b05654b86716d13b/US--Food-Safety
p652
(lp653
Vhttp://www.dailyjournal.net/view/story/8ee9ef9c60254dc2b05654b86716d13b/US--Food-Safety/
p654
aVhttp://www.tribtown.com/view/story/8ee9ef9c60254dc2b05654b86716d13b/US--Food-Safety
p655
aVhttp://www.abc15.com/news/national/fda-tweaks-food-safety-rules-due-next-year
p656
aVhttp://www.sltrib.com/sltrib/money/58433256-79/rules-farmers-safety-fda.html.csp
p657
asVhttp://www.prweb.com/releases/InventHelp-Inventions/Easy-Garden/prweb12167106.htm
p658
(lp659
sVhttp://www.idahostatesman.com/2014/09/19/3383293/fda-tweaks-food-safety-rules-due.html?utm_source=feedburner&utm_medium=feed&utm_campaign=Feed%253A%2BIdahostatesmancomBusiness%2B%2528IdahoStatesman.com%2BBusiness%2529
p660
(lp661
Vhttp://www.idahostatesman.com/2014/09/19/3383293/fda-tweaks-food-safety-rules-due.html?utm_source=feedburner&utm_medium=feed&utm_campaign=Feed%253A%2BIdahostatesmancomLife%2B%2528IdahoStatesman.com%2BLife%2529
p662
asVhttp://hosted2.ap.org/CARIE/6b85546689744819aa7a64cd3ca6cee6/Article_2014-09-23-US--Solar-Desert%20Boom/id-050f63d9519e45e7af17515aa5c2ecb9
p663
(lp664
Vhttp://www.jsonline.com/business/national/us-california-release-roadmap-for-solar-projectsa78c7fe82a904439a13165fa8e8202e5-276770361.html
p665
aVhttp://siouxcityjournal.com/news/national/us-california-release-roadmap-for-solar-projects/article_2205767c-ba31-5bfe-92a1-caf6bd445b92.html
p666
aVhttp://www.ctpost.com/business/energy/article/US-California-release-roadmap-for-solar-projects-5775266.php
p667
aVhttp://www.newstimes.com/business/energy/article/US-California-release-roadmap-for-solar-projects-5775266.php
p668
aVhttp://www.charlotteobserver.com/2014/09/23/5194531/us-california-release-roadmap.html
p669
aVhttp://www.greenwichtime.com/business/energy/article/US-California-release-roadmap-for-solar-projects-5775266.php
p670
aVhttp://www.bradenton.com/2014/09/23/5375346/us-california-release-roadmap.html#storylink%3Drss
p671
aVhttp://www.stamfordadvocate.com/business/energy/article/US-California-release-roadmap-for-solar-projects-5775266.php
p672
aVhttp://www.beaumontenterprise.com/business/energy/article/US-California-release-roadmap-for-solar-projects-5775266.php
p673
aVhttp://hosted2.ap.org/APDEFAULT/f70471f764144b2fab526d39972d37b3/Article_2014-09-23-US-Solar-Desert-Boom/id-cadd301974144da6965b1b482a16116b
p674
aVhttp://www.sfgate.com/business/energy/article/US-California-release-roadmap-for-solar-projects-5775266.php
p675
asVhttp://www.prnewswire.com/news-releases/nasa-cargo-launches-to-space-station-aboard-spacex-resupply-mission-275919781.html
p676
(lp677
sVhttp://www.solarpowerworldonline.com/2014/08/xcel-cec-open-two-new-community-solar-facilities-denver/?utm_source=rss&utm_medium=rss&utm_campaign=xcel-cec-open-two-new-community-solar-facilities-denver
p678
(lp679
sVhttp://www.autoworldnews.com/articles/9039/20140920/spacex-dragon-cargo-mission-delayed-to-sunday-watch-here.htm
p680
(lp681
sVhttp://www.medicalnewstoday.com/releases/282728.php
p682
(lp683
sVhttp://patch.com/california/carlsbad/high-temps-plus-sdge-customers-who-cut-back-0?utm_source=article-mostrecent&utm_medium=rss&utm_term=around%2520town&utm_campaign=recirc&utm_content=normal
p684
(lp685
sVhttp://www.mynews13.com/content/news/cfnews13/news/article.html/content/news/articles/cfn/2014/9/21/spacex_falcon_launch.html?cid=rss
p686
(lp687
Vhttp://mynews13.com/content/news/cfnews13/news/article.html/content/news/articles/cfn/2014/9/21/spacex_falcon_launch.html
p688
aVhttp://www.mynews13.com/content/news/cfnews13/news/article.html/content/news/articles/cfn/2014/9/21/spacex_falcon_launch.html
p689
asVhttp://www.thepncvoice.com/federal-government-loss-disposing-current-nuclear-waste-stores/35047
p690
(lp691
sVhttp://www.charlotteobserver.com/2014/08/31/5141475/feds-want-nuclear-waste-train.html#storylink%3Drss
p692
(lp693
sVhttp://www.solarindustrymag.com/e107_plugins/content/content.php?content.14534
p694
(lp695
sVhttp://www.startribune.com/nation/276883581.html
p696
(lp697
Vhttp://www.startribune.com/business/276883581.html
p698
aVhttp://www.startribune.com/politics/national/276883581.html
p699
asVhttp://keranews.org/post/ex-astronaut-ed-lu-deflecting-asteroids-and-building-private-space-business
p700
(lp701
sVhttp://www.spaceflightinsider.com/space-flight-news/editorial-commentary-opinion/opinion-nasa-dead-now/
p702
(lp703
sVhttp://www.delhidailynews.com/news/SpaceX-CRS-4-launch-to-ISS-cancelled-over-bad-weather-1411221059/
p704
(lp705
sVhttp://www.wtop.com/628/3707799/Wind-project-21st-centurys-Hoover-Dam
p706
(lp707
sVhttp://khaleejtimes.com/kt-article-display-1.asp?xfile=data%2Fnationhealth%2F2014%2FSeptember%2Fnationhealth_September3.xml&section=nationhealth
p708
(lp709
sVhttp://www.csindy.com/IndyBlog/archives/2014/09/16/new-energy-officer-hired-at-springs-utilities
p710
(lp711
sVhttp://www.sfgate.com/news/crime/article/Community-service-suggested-for-Bklyn-Bridge-stunt-5721775.php
p712
(lp713
Vhttp://www.stamfordadvocate.com/news/crime/article/Community-service-suggested-for-Bklyn-Bridge-stunt-5721775.php
p714
aVhttp://www.mysanantonio.com/news/crime/article/Community-service-suggested-for-Bklyn-Bridge-stunt-5721775.php
p715
aVhttp://www.newstimes.com/news/crime/article/Community-service-suggested-for-Bklyn-Bridge-stunt-5721775.php
p716
aVhttp://www.ctpost.com/news/crime/article/Community-service-suggested-for-Bklyn-Bridge-stunt-5721775.php
p717
aVhttp://www.greenwichtime.com/news/crime/article/Community-service-suggested-for-Bklyn-Bridge-stunt-5721775.php
p718
aVhttp://www.timesunion.com/news/crime/article/Community-service-suggested-for-Bklyn-Bridge-stunt-5721775.php
p719
asVhttp://www.abqjournal.com/455121
p720
(lp721
sVhttp://www.heraldsun.com.au/technology/anu-solar-technology-replacing-army-troops-heavy-batteries/story-fnjww8oz-1227039039117?utm_source=feedburner&utm_medium=feed&utm_campaign=Feed%253A%2BHeraldSunNationalNews%2B%2528Herald%2BSun%2B%257C%2BNational%2BNews%2529&nk=5e17dabb4639ae107fd90e661b93fe52
p722
(lp723
Vhttp://www.news.com.au/technology/environment/anu-solar-technology-replacing-army-troops-heavy-batteries/story-fnjww1so-1227039039117?from=public_rss
p724
aVhttp://www.dailytelegraph.com.au/technology/anu-solar-technology-replacing-army-troops-heavy-batteries/story-fnjww8ox-1227039039117?utm_source=feedburner&utm_medium=feed&utm_campaign=Feed%253A%2Bdailytelegraphnationalnewsndm%2B%2528Daily%2BTelegraph%2B%257C%2BNational%2BNews%2529&nk=1b01204f0c66e59d0f655ced90917694
p725
asVhttp://news.slashdot.org/story/14/08/31/1554252/feds-want-nuclear-waste-train-but-dont-know-where-it-would-go?utm_source=rss1.0mainlinkanon&utm_medium=feed
p726
(lp727
sVhttp://www.sify.com/news/wind-energy-proposal-would-light-los-angeles-homes-news-others-ojylJihahhidi.html
p728
(lp729
sVhttp://www.huffingtonpost.com/2014/08/31/radioactive-trains_n_5744084.html
p730
(lp731
sVhttp://arxiv.org/abs/1409.4159
p732
(lp733
sVhttp://www.sify.com/news/india-will-become-first-asian-nation-to-reach-mars-claims-isro-news-national-ojpoafghibgaf.html
p734
(lp735
sVhttp://www.finanznachrichten.de/nachrichten-2014-08/31242510-caverion-corporation-caverion-to-provide-a-total-technical-solution-for-arendal-police-station-in-norway-252.htm
p736
(lp737
sVhttp://news.xinhuanet.com/english/sci/2014-09/21/c_133660064.htm
p738
(lp739
Vhttp://www.globalpost.com/dispatch/news/xinhua-news-agency/140921/2nd-ld-writethru-us-spacecraft-carries-3d-printer-mice-space
p740
aVhttp://www.ecns.cn/2014/09-22/135521.shtml
p741
asVhttp://www.minnpost.com/political-agenda/2014/09/red-wing-officials-disappointed-feds-decision-spent-nuclear-fuel
p742
(lp743
sVhttp://www.jsonline.com/business/duke-atc-power-line-would-link-wyoming-wind-farm-utah-energy-storage-b99357883z1-276856381.html
p744
(lp745
sVhttp://www.sfgate.com/business/energy/article/Work-begins-on-1-billion-solar-plant-in-Nevada-5736390.php
p746
(lp747
Vhttp://www.tri-cityherald.com/2014/09/05/3137809/work-begins-on-1-billion-solar.html#storylink%3Drss
p748
aVhttp://www.idahostatesman.com/2014/09/05/3359199/work-begins-on-1-billion-solar.html?utm_source=feedburner&utm_medium=feed&utm_campaign=Feed%253A%2BIdahostatesmancomBusiness%2B%2528IdahoStatesman.com%2BBusiness%2529
p749
aVhttp://www.charlotteobserver.com/2014/09/05/5152325/work-begins-on-1-billion-solar.html#storylink%3Drss
p750
aVhttp://www.timesunion.com/business/energy/article/Work-begins-on-1-billion-solar-plant-in-Nevada-5736390.php
p751
aVhttp://www.therepublic.com/view/story/ce5ce7623d624f75808aa287876fb1c4/US--Solar-Plant-Nevada
p752
aVhttp://www.charlotteobserver.com/2014/09/05/5152325/work-begins-on-1-billion-solar.html
p753
asVhttp://www.bizjournals.com/albany/news/2014/08/27/lockheed-acquires-innovative-battery-company.html?utm_source=feedburner&utm_medium=feed&utm_campaign=Feed%253A%2Bvertical_16%2B%2528Environmental%2BServices%2BIndustry%2BNews%2529
p754
(lp755
Vhttp://www.bizjournals.com/washington/blog/fedbiz_daily/2014/08/lockheed-acquires-innovative-battery-company-but.html?utm_source=feedburner&utm_medium=feed&utm_campaign=Feed%253A%2Bvertical_16%2B%2528Environmental%2BServices%2BIndustry%2BNews%2529
p756
aVhttp://www.bizjournals.com/albany/news/2014/08/27/lockheed-acquires-innovative-battery-company.html?utm_source=feedburner&utm_medium=feed&utm_campaign=Feed%253A%2Bvertical_42%2B%2528Internet%2BIndustry%2BNews%2529
p757
aVhttp://www.bizjournals.com/albany/news/2014/08/27/lockheed-acquires-innovative-battery-company.html?utm_source=feedburner&utm_medium=feed&utm_campaign=Feed%253A%2Bvertical_29%2B%2528Energy%2BConservation%2BIndustry%2BNews%2529
p758
aVhttp://www.bizjournals.com/washington/blog/fedbiz_daily/2014/08/lockheed-acquires-innovative-battery-company-but.html?utm_source=feedburner&utm_medium=feed&utm_campaign=Feed%253A%2Bvertical_30%2B%2528Oil%2B%2526%2BGas%2BIndustry%2BNews%2529
p759
aVhttp://www.bizjournals.com/albany/news/2014/08/27/lockheed-acquires-innovative-battery-company.html?utm_source=feedburner&utm_medium=feed&utm_campaign=Feed%253A%2Bbizj_albany%2B%2528Business%2BReview%2Bof%2BAlbany%2529
p760
aVhttp://www.bizjournals.com/albany/news/2014/08/27/lockheed-acquires-innovative-battery-company.html?utm_source=feedburner&utm_medium=feed&utm_campaign=Feed%253A%2Bvertical_30%2B%2528Oil%2B%2526%2BGas%2BIndustry%2BNews%2529
p761
aVhttp://www.bizjournals.com/albany/news/2014/08/27/lockheed-acquires-innovative-battery-company.html
p762
asVhttp://www.startribune.com/politics/275729461.html
p763
(lp764
Vhttp://www.startribune.com/business/275729461.html
p765
asVhttp://www.kunc.org/post/solar-sparks-old-grid-debate-centralized-or-decentralized
p766
(lp767
sVhttp://www.macombdaily.com/opinion/20140830/kish-water-scofflaws-need-to-set-priorities
p768
(lp769
sVhttp://www.sify.com/news/proposal-would-send-wyoming-wind-energy-to-la-news-others-ojxx4regaafjh.html
p770
(lp771
Vhttp://www.sify.com/news/wind-energy-proposal-would-light-los-angeles-homes-news-others-ojxx4regaafjh.html
p772
aVhttp://www.sify.com/news/wind-energy-proposal-would-light-13-million-homes-news-others-ojxx4regaafjh.html
p773
asVhttp://www.rawstory.com/rs/2014/09/spacex-falcon-rocket-blasts-off-from-cape-canaveral-early-sunday-morning/
p774
(lp775
sVhttp://www.coloradoan.com/story/news/local/colorado/2014/09/04/gardner-ad-touts-failed-energy-measure/15097743/
p776
(lp777
sVhttp://www.usatoday.com/story/money/business/2014/08/31/feds-want-nuclear-waste-train-but-nowhere-to-go/14904167/
p778
(lp779
sVhttp://3dprint.com/16013/3d-printer-nasa-space-launch/
p780
(lp781
sVhttp://latino.foxnews.com/latino/lifestyle/2014/09/21/spacex-dragon-capsule-heads-toward-international-space-station/
p782
(lp783
sVhttp://theenergycollective.com/solarbusiness/484296/breaking-bad-solar-businesses-restructuring-survival?utm_source=feedburner&utm_medium=feed&utm_campaign=The%2BEnergy%2BCollective%2B%2528all%2Bposts%2529&utm_content=FeedBurner
p784
(lp785
sVhttp://wraltechwire.com/duke-energy-has-key-role-in-mammoth-8b-wind-power-project/14011744/
p786
(lp787
sVhttp://www.usatoday.com/story/tech/2014/09/21/spacex-launches-3-d-printer-other-station-gear/16000115/
p788
(lp789
sVhttp://www.sify.com/finance/fullstory.php?a=ojttazfdjdgec&title=FDA_tweaks_food_safety_rules_due_next_year
p790
(lp791
sVhttp://www.irishsun.com/index.php/sid/226009583/scat/a9927dde6777aafc
p792
(lp793
sVhttp://www.pottsmerc.com/business/20140920/fda-tweaks-food-safety-rules-due-next-year
p794
(lp795
sVhttp://www.prnewswire.com/news-releases/representative-petri-takes-stand-for-consumers--food-safety-276570631.html
p796
(lp797
sVhttp://www.charlotteobserver.com/2014/09/04/5149986/senate-candidate-in-colo-touts.html#storylink%3Drss
p798
(lp799
Vhttp://www.charlotteobserver.com/2014/09/04/5149986/senate-candidate-in-colo-touts.html
p800
asVhttp://www.prnewswire.com/news-releases/nasa-to-hold-sept-17-briefing-on-maven-mars-orbit-insertion-events-coverage-274914031.html
p801
(lp802
sVhttp://www.scmp.com/news/china/article/1590091/china-shows-advanced-ship-missile-defence-system
p803
(lp804
sVhttp://www.prweb.com/releases/InventHelp-Inventions/Health-Visual-Extender/prweb12169388.htm
p805
(lp806
sVhttp://www.bizjournals.com/pacific/news/2014/08/29/hawaiis-energy-excelerator-opens-headquarters-in.html?utm_source=feedburner&utm_medium=feed&utm_campaign=Feed%253A%2Bvertical_16%2B%2528Environmental%2BServices%2BIndustry%2BNews%2529
p807
(lp808
Vhttp://www.bizjournals.com/pacific/news/2014/08/29/hawaiis-energy-excelerator-opens-headquarters-in.html?utm_source=feedburner&utm_medium=feed&utm_campaign=Feed%253A%2Bvertical_29%2B%2528Energy%2BConservation%2BIndustry%2BNews%2529
p809
aVhttp://www.bizjournals.com/pacific/news/2014/08/29/hawaiis-energy-excelerator-opens-headquarters-in.html?utm_source=feedburner&utm_medium=feed&utm_campaign=Feed%253A%2Bvertical_30%2B%2528Oil%2B%2526%2BGas%2BIndustry%2BNews%2529
p810
aVhttp://www.bizjournals.com/pacific/news/2014/08/29/hawaiis-energy-excelerator-opens-headquarters-in.html?utm_source=feedburner&utm_medium=feed&utm_campaign=Feed%253A%2Bvertical_44%2B%2528Wireless%252C%2BPalms%2B%2526%2BPDA%2BIndustry%2BNews%2529
p811
aVhttp://www.bizjournals.com/pacific/news/2014/08/29/hawaiis-energy-excelerator-opens-headquarters-in.html?utm_source=feedburner&utm_medium=feed&utm_campaign=Feed%253A%2Bvertical_47%2B%2528Telecom%2BIndustry%2BNews%2529
p812
asVhttp://www.prweb.com/releases/InventHelp-Inventions/Home-ALC-Light/prweb12169555.htm
p813
(lp814
sVhttp://www.wdef.com/news/state/story/Georgia-Power-price-plan-rattles-solar-developers/qt2AfNilv0KYt2QiSooS9A.cspx?rss=3471
p815
(lp816
sVhttp://www.charlotteobserver.com/2014/08/29/5137779/community-service-eyed-for-brooklyn.html#storylink%3Drss
p817
(lp818
sVhttp://www.onlinetes.com/Article.aspx?article_id=169898
p819
(lp820
sVhttp://www.dailyrecord.co.uk/news/local-news/houston-we-have-no-problem-4158158
p821
(lp822
sVhttp://www.prweb.com/releases/InventHelp-Inventions/Nunleys-Boat-Dolly/prweb12169369.htm
p823
(lp824
sVhttp://zeenews.india.com/news/sci-tech/curbing-water-scarcity-possible-by-2050-study_1462473.html
p825
(lp826
sVhttp://www.onlinetes.com/Article.aspx?article_id=169893
p827
(lp828
sVhttp://rt.com/news/line/2014-09-21/#71172
p829
(lp830
sVhttp://www.sfgate.com/business/energy/article/Wind-power-proposed-to-supply-Los-Angeles-area-5775115.php
p831
(lp832
sVhttp://www.prweb.com/releases/InventHelp-Inventions/Hair-Big-Itch/prweb12166753.htm
p833
(lp834
sVhttp://www.tribtown.com/view/story/9b98eb97617a4ac588f81ed3795228b9/US--Nuclear-Waste-Train
p835
(lp836
Vhttp://www.dailyjournal.net/view/story/9b98eb97617a4ac588f81ed3795228b9/US--Nuclear-Waste-Train/
p837
aVhttp://www.startribune.com/nation/273375491.html
p838
asVhttp://www.usnews.com/news/technology/articles/2014/09/24/wind-energy-proposal-would-light-los-angeles-homes
p839
(lp840
sVhttp://www.yorkshirepost.co.uk/business/business-news/yorkshire-companies-capitalise-on-renewable-energy-benefits-1-6820617
p841
(lp842
sVhttp://www.denverpost.com/news/ci_26426956/here-comes-sun-montbello-school-recipient-solarenergy?source=rss&utm_source=feedburner&utm_medium=feed&utm_campaign=Feed%253A%2Bdp-news-local-schools-k-12%2B%2528Denver%2BPost%253A%2BNews%253A%2BEducation%253A%2BSchools%253A%2BK-12%2BSchools%2529
p843
(lp844
Vhttp://www.denverpost.com/news/ci_26426956/here-comes-sun-montbello-school-recipient-solarenergy?source=rss&utm_source=feedburner&utm_medium=feed&utm_campaign=Feed%253A%2Bdp-news-frontpage-local%2B%2528Denver%2BPost%253A%2BNews%253A%2BFront%2BPage%253A%2BDenver%2Band%2Bthe%2BWest%2529
p845
asVhttp://www.nassaunewslive.com/8-billion-green-energy-initiative-proposed-for-los-angeles/142411
p846
(lp847
sVhttp://nymag.com/daily/intelligencer/2014/08/dude-who-climbed-bridge-might-have-to-clean-it.html?mid=twitter_dailyintelligencer
p848
(lp849
sVhttp://www.sacbee.com/2014/09/23/6729883/wind-power-proposed-to-supply.html#mi_rss%3DAP%2520State%2520News
p850
(lp851
Vhttp://www.dailyherald.com/article/20140923/business/140929363/
p852
asVhttp://www.latinpost.com/articles/20460/20140831/before-finding-disposal-site-fed-seeks-trains-to-haul-nuclear-waste.htm
p853
(lp854
sVhttp://grist.org/business-technology/this-green-tea-party-star-is-fighting-for-solar/?utm_source=syndication&utm_medium=rss&utm_campaign=feed
p855
(lp856
Vhttp://grist.org/politics/this-green-tea-party-star-is-fighting-for-solar/?utm_source=syndication&utm_medium=rss&utm_campaign=feed
p857
asVhttp://blogs.edf.org/energyexchange/2014/08/25/utility-2-0-nys-new-business-model-should-properly-value-the-costs-and-benefits-of-distributed-energy-resources/?utm_source=feedburner&utm_medium=feed&utm_campaign=Feed%253A%2Benvironmentaldefense%2B%2528EDF.org%2B-%2BMain%2BFeed%2529&utm_content=FeedBurner
p858
(lp859
Vhttp://theenergycollective.com/edfenergyex/474236/utility-20-ny-s-new-business-model-should-properly-value-costs-and-benefits-distr?utm_source=feedburner&utm_medium=feed&utm_campaign=The%2BEnergy%2BCollective%2B%2528all%2Bposts%2529&utm_content=FeedBurner
p860
asVhttp://washingtonexaminer.com/dod-unit-ignored-audit-overpaid-millions/article/2553428
p861
(lp862
sVhttp://www.prweb.com/releases/InventHelp-Inventions/Gifts-Rare-Air/prweb12169818.htm
p863
(lp864
sVhttp://www.marketwatch.com/story/representative-petri-takes-stand-for-consumers-food-safety-2014-09-23
p865
(lp866
sVhttp://www.seattlemet.com/articles/planetary-resources-to-mine-asteroids-september-2014?utm_source=feedburner&utm_medium=feed&utm_campaign=Feed%253A%2Bseattlemet-home%2B%2528Home%2B-%2BSeattle%2BMetropolitan%2BMagazine%2529&utm_content=FeedBurner%2Buser%2Bview
p867
(lp868
sVhttp://phys.org/news/2014-09-halfway-blue-dot-mission.html
p869
(lp870
sVhttp://www.solarnovus.com/former-brownfield-provides-solar-power-to-toledo-zoo_N8132.html?utm_source=feedburner&utm_medium=feed&utm_campaign=Feed%253A%2BSolarNovus%2B%2528Solar%2BNovus%2BToday%2B-%2BDelivering%2Btoday%2527s%2Bsolar%2Btechnology%2Bnews%252C%2Btoday%2529
p871
(lp872
sVhttp://www.almanacnews.com/news/2014/09/04/firefighters-too-seek-to-reduce-water-use-due-to-drought
p873
(lp874
sVhttp://www.columbian.com/news/2014/aug/31/feds-want-nuclear-waste-train-but-nowhere-to-go/
p875
(lp876
sVhttp://www.sciencerecorder.com/news/dragon-capsule-from-spacex-in-route-to-international-space-station/
p877
(lp878
sVhttp://www.sify.com/news/fda-revises-food-safety-rules-due-next-year-news-others-ojttazfdjdgec.html
p879
(lp880
sVhttp://www.sfgate.com/green/article/Sprawling-solar-farms-OKd-near-desert-national-5775871.php
p881
(lp882
sVhttp://www.virtual-strategy.com/2014/09/12/mike-s-robinson-increase-solar-installations-clean-power-finance-partnership
p883
(lp884
sVhttp://www.miamiherald.com/2014/08/26/4309625/new-solar-farm-in-richmond-begins.html
p885
(lp886
sVhttp://trib.com/business/energy/four-companies-announce-billion-wind-farm-outside-wheatland/article_81edc21f-239d-5870-b7c3-2fd14f541b83.html
p887
(lp888
sVhttp://www.elp.com/articles/2014/09/doe-settles-nuclear-fuel-storage-lawsuit-for-23-5-million.html
p889
(lp890
sVhttp://news.xinhuanet.com/english/sci/2014-09/21/c_133659857.htm
p891
(lp892
sVhttp://www.eleconomista.es/empresas-finanzas/noticias/6101933/09/14/Plan-to-boost-clean-energy-in-the-California-desert-released.html
p893
(lp894
sVhttp://defensetech.org/2014/09/04/updated-f-1-may-replace-rd-180-rocket-engine/
p895
(lp896
sVhttp://www.prnewswire.com/news-releases/nasa-scientist-to-discuss-the-case-of-the-missing-martian-atmosphere-at-library-of-congress-lecture-274926191.html
p897
(lp898
sVhttp://phys.org/news/2014-08-scarcity.html
p899
(lp900
sVhttp://www.prweb.com/releases/InventHelp-/Perfect-Plastic/prweb12167085.htm
p901
(lp902
sVhttp://lompocrecord.com/santamaria/news/local/govt-and-politics/county-set-to-talk-drought-as-fall-weather-moves-in/article_a669fedd-731c-5e24-895f-4726fa9e5318.html
p903
(lp904
s.